(lp0
(lp1
(lp2
(lp3
(lp4
F0.09481861721724272
aa(lp5
F0.05914017464965582
aa(lp6
F0.07035765144973993
aF0.22203464712947607
aF0.07433349918574095
aF0.26819668244570494
aF0.06480262335389853
aF0.26348873507231474
aF0.0665879612788558
aF0.26940473448485136
aF0.07034762483090162
aF0.2618024228140712
aF0.07814791891723871
aF0.25802420917898417
aF0.07727051060646772
aF0.2591347685083747
aF0.06726856995373964
aF0.3035527849569917
aa(lp7
F0.049678790383040905
aF0.1433125315234065
aF0.06396487448364496
aF0.16534561198204756
aa(lp8
F0.054443358443677425
aF0.21993060875684023
aF0.07843842264264822
aF0.25129759404808283
aF0.07862431276589632
aF0.2519531259313226
aF0.06246947776526213
aF0.18261669483035803
aa(lp9
F0.18794409465044737
aF1.6246628677472472
aaa(lp10
(lp11
F1.9999999990686774
aa(lp12
F1.9999999990686774
aa(lp13
F0.5367798330262303
aF0.36366890650242567
aF0.5686037996783853
aF0.4091045940294862
aF0.4488443015143275
aF0.3843025742098689
aF0.45336917135864496
aF0.3808243116363883
aF0.464327079243958
aF0.3119047796353698
aF0.5156308049336076
aF0.41757576260715723
aF0.42212343495339155
aF0.4118167897686362
aF0.3964821817353368
aF0.3631695369258523
aa(lp14
F1.9999999990686774
aaa(lp15
(lp16
F0.1832690229639411
aF0.1868853224441409
aa(lp17
F0.22121096309274435
aF0.501995095051825
aF0.21541047375649214
aF0.5058717811480165
aF0.2133247358724475
aF0.5004882859066129
aF0.2122271442785859
aF0.625000243075192
aa(lp18
F0.283454897813499
aF0.24163782130926847
aF0.2435747953131795
aF0.24606318678706884
aa(lp19
F0.2253072327002883
aa(lp20
F0.08328001666814089
aF0.25864807795733213
aF0.0881387097761035
aF0.26255250070244074
aF0.095378995873034
aF0.2817616583779454
aF0.09583092574030161
aF0.3129577646031976
aa(lp21
F0.12557271402329206
aF0.11620311345905066
aaa(lp22
(lp23
F1.874511449597776
aF0.6933254851028323
aa(lp24
F0.6328124990686774
aF0.3448813622817397
aaa(lp25
(lp26
F1.9999999990686774
aa(lp27
F0.07595982495695353
aa(lp28
F0.4412374338135123
aaa(lp29
(lp30
F0.18945213686674833
aaa(lp31
(lp32
F0.304688454605639
aa(lp33
F0.48424126487225294
aa(lp34
F0.13574326317757368
aa(lp35
F1.9999999990686774
aaa(lp36
(lp37
F0.1342495633289218
aaa(lp38
(lp39
F0.005290207453072071
aa(lp40
F0.01537653710693121
aa(lp41
F0.22266095969825983
aa(lp42
F0.003669918514788151
aa(lp43
F0.005443642847239971
aa(lp44
F0.002533138729631901
aaa(lp45
(lp46
F1.9999999990686774
aa(lp47
F1.9999999990686774
aa(lp48
F1.9999999990686774
aa(lp49
F1.9999999990686774
aaa(lp50
(lp51
F0.46872707922011614
aaa(lp52
(lp53
F1.2529775062575936
aa(lp54
F1.9999999990686774
aaa(lp55
(lp56
F0.007933019660413265
aa(lp57
F0.007434123195707798
aF0.09221830312162638
aaa(lp58
(lp59
F0.17075036000460386
aa(lp60
F0.04888701159507036
aa(lp61
F0.0473616411909461
aa(lp62
F0.024039982818067074
aa(lp63
F0.020547953434288502
aa(lp64
F0.025881067849695683
aaa(lp65
(lp66
F0.6830775206908584
aa(lp67
F1.9999999990686774
aa(lp68
F1.6974836001172662
aaa(lp69
(lp70
F1.794919959269464
aF1.9999999990686774
aF1.8410678757354617
aF1.9999999990686774
aa(lp71
F1.9999999990686774
aa(lp72
F1.9999999990686774
aa(lp73
F1.9999999990686774
aF1.9999999990686774
aa(lp74
F0.42974250856786966
aaaa(lp75
(lp76
(lp77
F0.08594157639890909
aa(lp78
F0.0627479562535882
aa(lp79
F0.062429419718682766
aF0.19325712230056524
aF0.06784432847052813
aF0.2090778974816203
aF0.07031919900327921
aF0.16795581299811602
aF0.062116253189742565
aF0.25038153771311045
aF0.06329249497503042
aF0.19623502437025309
aF0.0647617606446147
aF0.21816954482346773
aF0.05833429004997015
aF0.2113997945562005
aF0.0675978260114789
aF0.22916184086352587
aa(lp80
F0.0527041582390666
aF0.10026013385504484
aF0.05569565761834383
aF0.13379132840782404
aa(lp81
F0.0723767476156354
aF0.15932108368724585
aF0.07293775025755167
aF0.18753607664257288
aF0.07833506632596254
aF0.14012133236974478
aF0.07224542554467916
aF0.17547521274536848
aa(lp82
F0.1748045226559043
aF1.4160167081281543
aaa(lp83
(lp84
F1.8710632314905524
aa(lp85
F1.9999999990686774
aa(lp86
F0.5122651224955916
aF0.23600950557738543
aF0.5195922860875726
aF0.2833343977108598
aF0.407889231108129
aF0.23217666056007147
aF0.4375159488990903
aF0.30153012927621603
aF0.43151958752423525
aF0.3755035409703851
aF0.4688419187441468
aF0.24881839659065008
aF0.40649422351270914
aF0.31890887673944235
aF0.35147093515843153
aF0.3207233911380172
aa(lp87
F1.9999999990686774
aaa(lp88
(lp89
F0.19464111421257257
aF0.179300288669765
aa(lp90
F0.19512540008872747
aF0.3443732028827071
aF0.1984141832217574
aF0.5000000009313226
aF0.1980788605287671
aF0.3763127336278558
aF0.21313476655632257
aF0.3911798847839236
aa(lp91
F0.19799139443784952
aF0.2500610863789916
aF0.21887210849672556
aF0.20214080717414618
aa(lp92
F0.2110663214698434
aa(lp93
F0.08214004803448915
aF0.21875097136944532
aF0.07995032053440809
aF0.2657516049221158
aF0.0810548858717084
aF0.20063017588108778
aF0.08047731872648001
aF0.24901840183883905
aa(lp94
F0.10924726445227861
aF0.11264721024781466
aaa(lp95
(lp96
F1.9915694585070014
aF0.6254882821813226
aa(lp97
F0.6547807333990932
aF0.3593645980581641
aaa(lp98
(lp99
F1.9999999990686774
aa(lp100
F0.06420634407550097
aa(lp101
F0.3749389620497823
aaa(lp102
(lp103
F0.16673273872584105
aaa(lp104
(lp105
F0.3605004260316491
aa(lp106
F0.5648635542020202
aa(lp107
F0.16132180113345385
aa(lp108
F1.9999999990686774
aaa(lp109
(lp110
F0.12890637014061213
aaa(lp111
(lp112
F0.007465462200343609
aa(lp113
F0.0281791714951396
aa(lp114
F0.20312468614429235
aa(lp115
F0.0039062490686774254
aa(lp116
F0.004870829172432423
aa(lp117
F0.0017089834436774254
aaa(lp118
(lp119
F1.9999999990686774
aa(lp120
F1.9999999990686774
aa(lp121
F1.9999999990686774
aa(lp122
F1.9999999990686774
aaa(lp123
(lp124
F0.5141463158652186
aaa(lp125
(lp126
F1.0708008268848062
aa(lp127
F1.9999999990686774
aaa(lp128
(lp129
F0.0076099419966340065
aa(lp130
F0.007938398979604244
aF0.09124660398811102
aaa(lp131
(lp132
F0.1562306573614478
aa(lp133
F0.05347136128693819
aa(lp134
F0.042887638323009014
aa(lp135
F0.02545186411589384
aa(lp136
F0.019546271301805973
aa(lp137
F0.02022503037005663
aaa(lp138
(lp139
F0.4407260464504361
aa(lp140
F1.9999999990686774
aa(lp141
F1.5106735425069928
aaa(lp142
(lp143
F1.8474929491057992
aF1.9999999990686774
aF1.8978252736851573
aF1.9999999990686774
aa(lp144
F1.9999999990686774
aa(lp145
F1.9999999990686774
aa(lp146
F1.9999999990686774
aF1.9999999990686774
aa(lp147
F0.4411078793928027
aaaa(lp148
(lp149
(lp150
F0.02685165125876665
aa(lp151
F0.02534626889973879
aa(lp152
F0.031196574680507183
aF0.3536834781989455
aF0.02246087323874235
aF0.4501960286870599
aF0.023433382622897625
aF0.3281249990686774
aF0.0305061312392354
aF0.48567459639161825
aF0.031643680296838284
aF0.34401935804635286
aF0.03135883901268244
aF0.4551163325086236
aF0.031845410354435444
aF0.34273873921483755
aF0.023417389951646328
aF0.525521787814796
aa(lp153
F0.02099603321403265
aF0.18764295894652605
aF0.02588845882564783
aF0.25012405309826136
aa(lp154
F0.03558963444083929
aF0.2694810600951314
aF0.03617874067276716
aF0.29248046036809683
aF0.03580604400485754
aF0.2769768862053752
aF0.035710872150957584
aF0.3045256482437253
aa(lp155
F0.08752369415014982
aF1.9999999990686774
aaa(lp156
(lp157
F1.9999999990686774
aa(lp158
F1.9999999990686774
aa(lp159
F0.23535180184990168
aF0.4741343380883336
aF0.22965300176292658
aF0.47648542281240225
aF0.20739272329956293
aF0.5435486445203424
aF0.20410557929426432
aF0.4772118432447314
aF0.18359261471778154
aF0.5092835379764438
aF0.15429592039436102
aF0.5666916249319911
aF0.12493896391242743
aF0.5174903916195035
aF0.1861093109473586
aF0.5977804670110345
aa(lp160
F1.9999999990686774
aaa(lp161
(lp162
F0.09601218532770872
aF0.08409210201352835
aa(lp163
F0.10056461486965418
aF0.6360168820247054
aF0.09163844119757414
aF0.7021465292200446
aF0.0854461332783103
aF0.6018517715856433
aF0.09482583869248629
aF0.71469805855304
aa(lp164
F0.3526574606075883
aF0.40240884106606245
aF0.3774125585332513
aF0.5156860360875726
aa(lp165
F0.06249582674354315
aa(lp166
F0.04011477064341307
aF0.3443387085571885
aF0.03988160099834204
aF0.39744400698691607
aF0.030151366256177425
aF0.37924762163311243
aF0.040527346543967724
aF0.4375064382329583
aa(lp167
F0.05259701330214739
aF0.0525912856683135
aaa(lp168
(lp169
F0.86456114705652
aF1.3096694489941
aa(lp170
F0.2821990502998233
aF0.12496947403997183
aaa(lp171
(lp172
F1.9999999990686774
aa(lp173
F0.0336794750764966
aa(lp174
F0.12493896391242743
aaa(lp175
(lp176
F0.24999999906867743
aaa(lp177
(lp178
F0.14302587416023016
aa(lp179
F0.282051102258265
aa(lp180
F0.0744728920981288
aa(lp181
F1.9999999990686774
aaa(lp182
(lp183
F0.186321129091084
aaa(lp184
(lp185
F0.010640769265592098
aa(lp186
F0.03767163213342428
aa(lp187
F0.31239469069987535
aa(lp188
F0.007128235884010792
aa(lp189
F0.0036621084436774254
aa(lp190
F0.0022277934476733208
aaa(lp191
(lp192
F1.9999999990686774
aa(lp193
F1.9999999990686774
aa(lp194
F1.9999999990686774
aa(lp195
F1.9999999990686774
aaa(lp196
(lp197
F0.2498741140589118
aaa(lp198
(lp199
F0.4531249972060323
aa(lp200
F1.8083936991170049
aaa(lp201
(lp202
F0.007051647640764713
aa(lp203
F0.006566260941326618
aF0.14941590558737516
aaa(lp204
(lp205
F0.12499999906867743
aa(lp206
F0.04872137773782015
aa(lp207
F0.04300741944462061
aa(lp208
F0.021721974946558475
aa(lp209
F0.0195619510486722
aa(lp210
F0.01962790172547102
aaa(lp211
(lp212
F0.9141017505899072
aa(lp213
F0.9921874972060323
aa(lp214
F0.6083658570423722
aaa(lp215
(lp216
F1.6501766899600625
aF1.9999999990686774
aF1.6829901626333594
aF1.9999999990686774
aa(lp217
F1.9999999990686774
aa(lp218
F1.9999999990686774
aa(lp219
F1.9999999990686774
aF1.9999999990686774
aa(lp220
F0.4057091576978564
aaaa(lp221
(lp222
(lp223
F0.12304809223860502
aa(lp224
F0.08840217906981707
aa(lp225
F0.09960935730487108
aF0.10126430634409189
aF0.09780120756477118
aF0.12469603773206472
aF0.0991209140047431
aF0.13284619245678186
aF0.09812396671622992
aF0.15741295646876097
aF0.10121495183557272
aF0.0995750417932868
aF0.09961057174950838
aF0.16406491491943598
aF0.10059462953358889
aF0.11385044548660517
aF0.0981562165543437
aF0.14203377161175013
aa(lp226
F0.08401883859187365
aF0.06518765073269606
aF0.0810552267357707
aF0.06772126164287329
aa(lp227
F0.11718750093132257
aF0.08889398071914911
aF0.11204430740326643
aF0.11767578218132257
aF0.11270311195403337
aF0.12503052223473787
aF0.1129275606945157
aF0.10783741716295481
aa(lp228
F0.2695274343714118
aF0.8240136681124568
aaa(lp229
(lp230
F1.7661287793889642
aa(lp231
F1.9999999990686774
aa(lp232
F0.8046849733218551
aF0.15070355776697397
aF0.7757209977135062
aF0.17593442741781473
aF0.6325683584436774
aF0.19726586434990168
aF0.6347705228254199
aF0.1681925831362605
aF0.7025142693892121
aF0.17586021404713392
aF0.6975562376901507
aF0.1737986234948039
aF0.569946258328855
aF0.1735571837052703
aF0.5713593689724803
aF0.20003238413482904
aa(lp233
F1.9999999990686774
aaa(lp234
(lp235
F0.2996530691161752
aF0.2951460024341941
aa(lp236
F0.31772897485643625
aF0.205114864744246
aF0.3060899442061782
aF0.24710941966623068
aF0.31359848473221064
aF0.20671700965613127
aF0.3061698107048869
aF0.2817382840439677
aa(lp237
F0.10150119569152594
aF0.15722872037440538
aF0.11193033214658499
aF0.15686127822846174
aa(lp238
F0.3267800947651267
aa(lp239
F0.12652527820318937
aF0.1151398615911603
aF0.12454523611813784
aF0.14056615810841322
aF0.12719879392534494
aF0.12058062944561243
aF0.12078844662755728
aF0.16529053915292025
aa(lp240
F0.18072388973087072
aF0.17603628430515528
aaa(lp241
(lp242
F1.9999999990686774
aF0.3530274061486125
aa(lp243
F1.9999999990686774
aF0.5979461697861552
aaa(lp244
(lp245
F1.9999999990686774
aa(lp246
F0.10861905384808779
aa(lp247
F0.6831629117950797
aaa(lp248
(lp249
F0.11531069967895746
aaa(lp250
(lp251
F0.5692446520552039
aa(lp252
F0.9476380376145244
aa(lp253
F0.25513957161456347
aa(lp254
F1.9999999990686774
aaa(lp255
(lp256
F0.06289697531610727
aaa(lp257
(lp258
F0.008231564424932003
aa(lp259
F0.02829419169574976
aa(lp260
F0.18433449137955904
aa(lp261
F0.005631566978991032
aa(lp262
F0.006097204051911831
aa(lp263
F0.002760174684226513
aaa(lp264
(lp265
F1.9999999990686774
aa(lp266
F1.9999999990686774
aa(lp267
F1.9999999990686774
aa(lp268
F1.9999999990686774
aaa(lp269
(lp270
F0.6240197839215398
aaa(lp271
(lp272
F1.687489508651197
aa(lp273
F1.9999999990686774
aaa(lp274
(lp275
F0.009773255325853825
aa(lp276
F0.008098362945020199
aF0.11454800236970186
aaa(lp277
(lp278
F0.1718730917200446
aa(lp279
F0.05976851377636194
aa(lp280
F0.046874999068677425
aa(lp281
F0.03029108326882124
aa(lp282
F0.021101891063153744
aa(lp283
F0.031372071243822575
aaa(lp284
(lp285
F0.26344745699316263
aa(lp286
F1.9999999990686774
aa(lp287
F1.9999999990686774
aaa(lp288
(lp289
F1.9999980917200446
aF1.9999999990686774
aF1.9999999990686774
aF1.9999999990686774
aa(lp290
F1.9999999990686774
aa(lp291
F1.9999999990686774
aa(lp292
F1.9999999990686774
aF1.9999999990686774
aa(lp293
F0.4810518519952893
aaaa(lp294
(lp295
(lp296
F0.019197643734514713
aa(lp297
F0.01562501583248377
aa(lp298
F0.015405680052936077
aF0.5601322827860713
aF0.014778736047446728
aF0.7589254127815366
aF0.013427733443677425
aF0.5429687490686774
aF0.015057922340929508
aF0.8129586474969983
aF0.013668057508766651
aF0.5468134796246886
aF0.014018154703080654
aF0.7255939608439803
aF0.015138848684728146
aF0.5972875086590648
aF0.013640387915074825
aF0.8225480364635587
aa(lp299
F0.01272022444754839
aF0.2928462913259864
aF0.011637344025075436
aF0.40736011508852243
aa(lp300
F0.01692092139273882
aF0.4727191934362054
aF0.017032732255756855
aF0.5173540646210313
aF0.016895965673029423
aF0.46862028259783983
aF0.017669755034148693
aF0.5076227793470025
aa(lp301
F0.04173422697931528
aF1.9999999990686774
aaa(lp302
(lp303
F1.9999999990686774
aa(lp304
F1.9999999990686774
aa(lp305
F0.11377833317965269
aF0.8022870840504766
aF0.10697900410741568
aF0.8173828171566129
aF0.08959770109504461
aF0.7803838243708014
aF0.09495930280536413
aF0.8046886501833797
aF0.09118652250617743
aF0.8319579279050231
aF0.10234242957085371
aF0.8124999990686774
aF0.09082830976694822
aF0.8075837725773454
aF0.088261847384274
aF0.8570699347183108
aa(lp306
F1.9999999990686774
aaa(lp307
(lp308
F0.04520065616816282
aF0.04712681192904711
aa(lp309
F0.04867884423583746
aF1.0042804768308997
aF0.04695518594235182
aF1.1389712216332555
aF0.04653534200042486
aF0.9677484622225165
aF0.039062499068677425
aF1.0937497606500983
aa(lp310
F0.5702667152509093
aF0.6864124974235892
aF0.6063191769644618
aF0.7188438391312957
aa(lp311
F0.054687739349901676
aa(lp312
F0.019687390886247158
aF0.5322265708819032
aF0.019808772020041943
aF0.6101168999448419
aF0.01828899886459112
aF0.538390981964767
aF0.01955174934118986
aF0.6206029122695327
aa(lp313
F0.026964052580296993
aF0.027895749546587467
aaa(lp314
(lp315
F0.3858469622209668
aF1.996678571216762
aa(lp316
F0.12812268268316984
aF0.08580016437917948
aaa(lp317
(lp318
F1.9999999990686774
aa(lp319
F0.015617369674146175
aa(lp320
F0.1114542642608285
aaa(lp321
(lp322
F0.5498353252187371
aaa(lp323
(lp324
F0.11685738246887922
aa(lp325
F0.21107171196490526
aa(lp326
F0.047650677151978016
aa(lp327
F1.9999999990686774
aaa(lp328
(lp329
F0.30664067063480616
aaa(lp330
(lp331
F0.011856279335916042
aa(lp332
F0.05468749161809683
aa(lp333
F0.314539753831923
aa(lp334
F0.007234805263578892
aa(lp335
F0.006594219245016575
aa(lp336
F0.003023938275873661
aaa(lp337
(lp338
F1.9999999990686774
aa(lp339
F1.9999999990686774
aa(lp340
F1.9999999990686774
aa(lp341
F1.9999999990686774
aaa(lp342
(lp343
F0.359258851967752
aaa(lp344
(lp345
F0.265538421459496
aa(lp346
F0.8588322391733527
aaa(lp347
(lp348
F0.008727305568754673
aa(lp349
F0.009774246253073215
aF0.1398644307628274
aaa(lp350
(lp351
F0.22657405864447355
aa(lp352
F0.061752197332680225
aa(lp353
F0.05035397130995989
aa(lp354
F0.02830874640494585
aa(lp355
F0.023519904352724552
aa(lp356
F0.023408650420606136
aaa(lp357
(lp358
F1.3639981960877776
aa(lp359
F0.5573564162477851
aa(lp360
F0.3001355240121484
aaa(lp361
(lp362
F1.7284393208101392
aF1.9999999990686774
aF1.7497961511835456
aF1.9999999990686774
aa(lp363
F1.9999999990686774
aa(lp364
F1.9999999990686774
aa(lp365
F1.9999999990686774
aF1.9999999990686774
aa(lp366
F0.41009515058249235
aaaa(lp367
(lp368
(lp369
F0.08497694414108992
aa(lp370
F0.0599733917042613
aa(lp371
F0.07138091418892145
aF0.5079789077863097
aF0.06750464159995317
aF0.7451406409963965
aF0.07040645461529493
aF0.47460933309048414
aF0.06745965126901865
aF0.8647400559857488
aF0.06957137305289507
aF0.4998634783551097
aF0.06715306919068098
aF0.7193079320713878
aF0.06835936661809683
aF0.5232867961749434
aF0.06639886740595102
aF0.9454746348783374
aa(lp372
F0.05834076087921858
aF0.2820285866037011
aF0.054790484718978405
aF0.339842296205461
aa(lp373
F0.07923125009983778
aF0.38232027646154165
aF0.07790289353579283
aF0.4617392411455512
aF0.07940769661217928
aF0.4224452590569854
aF0.07687865290790796
aF0.4218744458630681
aa(lp374
F0.1914004972204566
aF1.9999999990686774
aaa(lp375
(lp376
F1.9999999990686774
aa(lp377
F1.9999999990686774
aa(lp378
F0.5498095834627748
aF0.6794051332399249
aF0.5338173909112811
aF0.65590666141361
aF0.43942017760127783
aF0.7500000009313226
aF0.43506460543721914
aF0.7226919280365109
aF0.47649343218654394
aF0.7026357473805547
aF0.47295111138373613
aF0.7280210359022021
aF0.39441951271146536
aF0.7425279533490539
aF0.3952909214422107
aF0.7559659434482455
aa(lp379
F1.9999999990686774
aaa(lp380
(lp381
F0.2109877159819007
aF0.20312499906867743
aa(lp382
F0.2246683808043599
aF0.8393554044887424
aF0.2087972154840827
aF1.0715384623035789
aF0.22119114827364683
aF0.8587898900732398
aF0.21028656046837568
aF1.0507773207500577
aa(lp383
F0.5224655056372285
aF0.6103458115831017
aF0.5626227864995599
aF0.6625469448044896
aa(lp384
F0.2347498657181859
aa(lp385
F0.08807194139808416
aF0.5014767879620194
aF0.08590729255229235
aF0.5624234667047858
aF0.0889898119494319
aF0.5092431334778666
aF0.08421509619802237
aF0.6000955579802394
aa(lp386
F0.12737649958580732
aF0.12365307752043009
aaa(lp387
(lp388
F1.8742027645930648
aF1.3789023095741868
aa(lp389
F0.5555803878232837
aF0.38050136249512434
aaa(lp390
(lp391
F1.9999999990686774
aa(lp392
F0.07671757321804762
aa(lp393
F0.4808341534808278
aaa(lp394
(lp395
F0.57720806915313
aaa(lp396
(lp397
F0.4375038733705878
aa(lp398
F0.7192993210628629
aa(lp399
F0.17895839642733335
aa(lp400
F1.9999999990686774
aaa(lp401
(lp402
F0.2807617178186774
aaa(lp403
(lp404
F0.011474617756903172
aa(lp405
F0.036209107376635075
aa(lp406
F0.2341230781748891
aa(lp407
F0.0074468860402703285
aa(lp408
F0.012033526785671711
aa(lp409
F0.0052490150555968285
aaa(lp410
(lp411
F1.9999999990686774
aa(lp412
F1.9999999990686774
aa(lp413
F1.9999999990686774
aa(lp414
F1.9999999990686774
aaa(lp415
(lp416
F0.8894962826743722
aaa(lp417
(lp418
F1.5451216911897063
aa(lp419
F1.827879843302071
aaa(lp420
(lp421
F0.016600974835455418
aa(lp422
F0.016603373922407627
aF0.13620407227426767
aaa(lp423
(lp424
F0.35405564960092306
aa(lp425
F0.11737693939357996
aa(lp426
F0.09326061140745878
aa(lp427
F0.052804009057581425
aa(lp428
F0.03698715288192034
aa(lp429
F0.04485499765723944
aaa(lp430
(lp431
F1.2714145733043551
aa(lp432
F1.9999999990686774
aa(lp433
F1.5115250693634152
aaa(lp434
(lp435
F1.9999999990686774
aF1.9999999990686774
aF1.9999999990686774
aF1.9999999990686774
aa(lp436
F1.9999999990686774
aa(lp437
F1.9999999990686774
aa(lp438
F1.9999999990686774
aF1.9999999990686774
aa(lp439
F0.5010317796841264
aaaa(lp440
(lp441
(lp442
F0.0734731825068593
aa(lp443
F0.04959105607122183
aa(lp444
F0.0403204346075654
aF0.07812308985739946
aF0.06274414155632257
aF0.1155150281265378
aF0.06266430113464594
aF0.08544918801635504
aF0.044175623916089535
aF0.11497257370501757
aF0.03943934943526983
aF0.09816037025302649
aF0.03519383538514376
aF0.12334877345710993
aF0.05862975213676691
aF0.08593749906867743
aF0.034547497518360615
aF0.12440734636038542
aa(lp445
F0.0515923285856843
aF0.04569858219474554
aF0.028887339867651463
aF0.056518432684242725
aa(lp446
F0.06135206762701273
aF0.07212816830724478
aF0.039062499068677425
aF0.07272326666861773
aF0.07226637098938227
aF0.07921174261718988
aF0.07331848423928022
aF0.07799891475588083
aa(lp447
F0.10944129806011915
aF0.7467723609879613
aaa(lp448
(lp449
F1.4019668838009238
aa(lp450
F1.9999999990686774
aa(lp451
F0.3373865345492959
aF0.1294556139037013
aF0.40356441866606474
aF0.11913299094885588
aF0.3672702396288514
aF0.15625000093132257
aF0.23436736967414618
aF0.15625007543712854
aF0.25223901588469744
aF0.14081609901040792
aF0.22402542736381292
aF0.13229029905050993
aF0.25958253536373377
aF0.14842842984944582
aF0.24888583552092314
aF0.1670229760929942
aa(lp452
F1.9999999990686774
aaa(lp453
(lp454
F0.13292503636330366
aF0.21978759858757257
aa(lp455
F0.1387987295165658
aF0.15695815067738295
aF0.11730958800762892
aF0.2050842298194766
aF0.2587890634313226
aF0.1556980675086379
aF0.11142730992287397
aF0.19427466299384832
aa(lp456
F0.09217239636927843
aF0.10579376388341188
aF0.10260842274874449
aF0.11729591805487871
aa(lp457
F0.2502747783437371
aa(lp458
F0.054669695906341076
aF0.10540012735873461
aF0.06772879976779222
aF0.13528779614716768
aF0.053176636807620525
aF0.09276842977851629
aF0.04628423135727644
aF0.14880407508462667
aa(lp459
F0.1252746870741248
aF0.08949982654303312
aaa(lp460
(lp461
F1.4999999841675162
aF0.2920713881030679
aa(lp462
F0.4689114773645997
aF0.34525824431329966
aaa(lp463
(lp464
F1.548921030946076
aa(lp465
F0.053771949373185635
aa(lp466
F0.24999999906867743
aaa(lp467
(lp468
F0.14104798715561628
aaa(lp469
(lp470
F0.4531250009313226
aa(lp471
F0.6249998761340976
aa(lp472
F0.16210937406867743
aa(lp473
F1.9999999990686774
aaa(lp474
(lp475
F0.08283341210335493
aaa(lp476
(lp477
F0.0070075104013085365
aa(lp478
F0.02967953961342573
aa(lp479
F0.23657322209328413
aa(lp480
F0.00415834691375494
aa(lp481
F0.006441966630518436
aa(lp482
F0.0032505178824067116
aaa(lp483
(lp484
F1.9999999990686774
aa(lp485
F1.9999999990686774
aa(lp486
F1.9999999990686774
aa(lp487
F1.9999999990686774
aaa(lp488
(lp489
F0.8012778228148818
aaa(lp490
(lp491
F1.9999999990686774
aa(lp492
F1.9551585102453828
aaa(lp493
(lp494
F0.010744218714535236
aa(lp495
F0.011474610306322575
aF0.10417046304792166
aaa(lp496
(lp497
F0.22488594893366098
aa(lp498
F0.07036523800343275
aa(lp499
F0.062020390294492245
aa(lp500
F0.027343743480741978
aa(lp501
F0.02245819102972746
aa(lp502
F0.027331589721143246
aaa(lp503
(lp504
F0.22018164861947298
aa(lp505
F0.963161519728601
aa(lp506
F0.561981133185327
aaa(lp507
(lp508
F1.9999999990686774
aF1.9999999990686774
aF1.9999999990686774
aF1.9999999990686774
aa(lp509
F1.9999999990686774
aa(lp510
F1.9999999990686774
aa(lp511
F1.9999999990686774
aF1.9999999990686774
aa(lp512
F0.5378429936245084
aaaaa(lp513
(lp514
(lp515
(lp516
S'offm_cah'
p517
aS'offmt_cah'
p518
aa(lp519
S'offh_cah'
p520
aS'offht_cah'
p521
aaaa(lp522
(lp523
(lp524
g517
ag521
aa(lp525
g520
ag521
aaaa(lp526
(lp527
(lp528
g517
ag518
aa(lp529
S'slom_cah'
p530
aS'slomt_cah'
p531
aa(lp532
g520
ag521
aa(lp533
S'sloh_cah'
p534
aS'sloht_cah'
p535
aaag527
ag527
ag527
ag527
ag527
ag527
ag527
ag527
ag527
ag527
ag527
ag527
ag527
ag527
ag527
aa(lp536
(lp537
(lp538
g517
ag518
aa(lp539
g530
ag531
aaag537
ag537
ag537
aa(lp540
(lp541
(lp542
g517
ag518
aa(lp543
g530
ag531
aa(lp544
g520
ag521
aaag541
ag541
ag541
ag541
ag541
ag541
ag541
aa(lp545
(lp546
(lp547
g517
ag518
aa(lp548
g520
ag521
aa(lp549
g534
ag535
aaag546
aa(lp550
(lp551
(lp552
g520
ag521
aa(lp553
g534
ag535
aaaa(lp554
(lp555
S'tauhmax_cah'
p556
aaa(lp557
(lp558
(lp559
g517
ag518
aa(lp560
g520
ag521
aaS'taummax_cah'
p561
ag556
aag558
ag558
ag558
ag558
ag558
ag558
ag558
ag558
ag558
ag558
ag558
ag558
ag558
ag558
ag558
aa(lp562
(lp563
g561
aaa(lp564
(lp565
(lp566
g517
ag518
aa(lp567
g530
ag531
aa(lp568
g520
ag521
aa(lp569
g534
ag535
aag556
aag565
aa(lp570
(lp571
(lp572
g517
ag518
aa(lp573
g530
ag531
aa(lp574
g520
ag521
aa(lp575
g534
ag535
aag556
aag571
ag571
ag571
ag571
ag571
ag571
ag571
aa(lp576
(lp577
(lp578
g517
ag518
aa(lp579
g530
ag531
aag556
aag577
ag577
ag577
aa(lp580
(lp581
(lp582
g517
ag518
aa(lp583
g530
ag531
aa(lp584
g520
ag521
aa(lp585
g534
ag535
aaaa(lp586
(lp587
(lp588
g517
ag518
aa(lp589
g530
ag531
aa(lp590
g520
ag521
aa(lp591
g534
ag535
aag561
aag587
ag587
ag587
ag587
ag587
ag587
ag587
aa(lp592
(lp593
(lp594
g517
ag518
aa(lp595
g530
ag531
aag561
aag593
aa(lp596
(lp597
(lp598
S'offm_car'
p599
aa(lp600
S'offh_car'
p601
aaS'taummax_car'
p602
aS'tauhmax_car'
p603
aag597
aa(lp604
(lp605
g599
aS'slom_car'
p606
ag601
aS'sloh_car'
p607
ag602
ag603
aag605
aa(lp608
(lp609
g561
aaa(lp610
(lp611
(lp612
g517
ag518
aa(lp613
g530
ag531
aag561
aaa(lp614
(lp615
(lp616
g517
ag518
aa(lp617
g530
ag531
aa(lp618
g520
ag521
aa(lp619
g534
ag535
aaaa(lp620
(lp621
S'gamma_cad'
p622
aaa(lp623
(lp624
S'taur_cad'
p625
aaa(lp626
(lp627
g625
aS'cainf_cad'
p628
aaa(lp629
(lp630
g625
aaa(lp631
(lp632
g628
aaa(lp633
(lp634
g622
aaa(lp635
(lp636
(lp637
S'offm_na'
p638
aS'offmt_na'
p639
aa(lp640
S'offh_na'
p641
aS'offht_na'
p642
aa(lp643
S'slom_na'
p644
aS'slomt_na'
p645
aa(lp646
S'sloh_na'
p647
aS'sloht_na'
p648
aaaa(lp649
(lp650
(lp651
g638
ag639
aa(lp652
g641
ag642
aa(lp653
g644
ag645
aa(lp654
g647
ag648
aaaa(lp655
(lp656
(lp657
g638
ag639
aa(lp658
g641
ag642
aa(lp659
g644
ag645
aa(lp660
g647
ag648
aa(lp661
S'i1_na'
p662
aS'i2_na'
p663
aaaa(lp664
(lp665
(lp666
g638
ag639
aa(lp667
g641
ag642
aa(lp668
g644
ag645
aa(lp669
g647
ag648
aa(lp670
g662
ag663
aaaa(lp671
(lp672
(lp673
g638
ag639
aa(lp674
g644
ag645
aa(lp675
g662
ag663
aaaa(lp676
(lp677
(lp678
g638
ag639
aa(lp679
g641
ag642
aa(lp680
g644
ag645
aa(lp681
g647
ag648
aaaa(lp682
(lp683
(lp684
g638
ag639
aaaa(lp685
(lp686
(lp687
g638
ag639
aaaa(lp688
(lp689
(lp690
g638
ag639
aaaa(lp691
(lp692
(lp693
g638
ag639
aaaa(lp694
(lp695
(lp696
S'a0_kslow'
p697
aS'a1_kslow'
p698
aS'a2_kslow'
p699
aa(lp700
S'b0_kslow'
p701
aS'b11_kslow'
p702
aS'b2_kslow'
p703
aS'bb0_kslow'
p704
aS'bb1_kslow'
p705
aS'bb2_kslow'
p706
aaS'sloh_kslow'
p707
aaa(lp708
(lp709
S'offc_sk'
p710
aS'sloc_sk'
p711
aaa(lp712
(lp713
g711
aaa(lp714
(lp715
(lp716
S'off_iH'
p717
aS'offt1_iH'
p718
aS'offt2_iH'
p719
aa(lp720
S'slo_iH'
p721
aS'slot1_iH'
p722
aS'slot2_iH'
p723
aaaa(lp724
(lp725
(lp726
g717
ag718
ag719
aa(lp727
g721
ag722
ag723
aaag725
aa(lp728
(lp729
(lp730
S'offma_kslow'
p731
aS'offmb_kslow'
p732
aaS'offh_kslow'
p733
a(lp734
S'sloma_kslow'
p735
aS'slomb_kslow'
p736
aag707
a(lp737
g697
ag698
ag699
aa(lp738
g701
ag702
ag703
ag704
ag705
ag706
aaaa(lp739
(lp740
(lp741
g731
ag732
aag733
a(lp742
g735
ag736
aag707
a(lp743
g697
ag698
ag699
aa(lp744
g701
ag702
ag703
ag704
ag705
ag706
aaaa(lp745
(lp746
(lp747
g731
ag732
aag733
a(lp748
g735
ag736
aag707
a(lp749
g697
ag698
ag699
aa(lp750
g701
ag702
ag703
ag704
ag705
ag706
aaaa(lp751
(lp752
(lp753
g731
ag732
aag733
a(lp754
g735
ag736
aag707
a(lp755
g697
ag698
ag699
aa(lp756
g701
ag702
ag703
ag704
ag705
ag706
aaaa(lp757
(lp758
(lp759
g731
ag732
aag733
a(lp760
g735
ag736
aag707
a(lp761
g697
ag698
ag699
aa(lp762
g701
ag702
ag703
ag704
ag705
ag706
aaaa(lp763
(lp764
(lp765
g731
ag732
aag733
a(lp766
g735
ag736
aag707
a(lp767
g697
ag698
ag699
aa(lp768
g701
ag702
ag703
ag704
ag705
ag706
aaaa(lp769
(lp770
(lp771
g517
ag518
aa(lp772
g520
ag521
aag561
ag556
aaa(lp773
(lp774
(lp775
g517
ag518
aa(lp776
g520
ag521
aag561
ag556
aaa(lp777
(lp778
(lp779
g517
ag518
aa(lp780
g520
ag521
aag561
ag556
aaa(lp781
(lp782
S'offm_bk'
p783
a(lp784
S'ctm_bk'
p785
aS'ctmmax_bk'
p786
aaag782
ag782
ag782
aa(lp787
(lp788
g783
aaa(lp789
(lp790
g783
a(lp791
g785
ag786
aaaa(lp792
(lp793
g783
a(lp794
g785
ag786
aaag793
aa(lp795
(lp796
g783
aaaa(lp797
(lp798
(lp799
F-25.9
aF-27.0
aaa(lp800
(lp801
F-37.3
aF-30.0
aaa(lp802
(lp803
F-31.4
aF0.85
aF-28.5
aF0.72
aa(lp804
F7.0
aF0.85
aF-28.5
aF0.72
aa(lp805
F-31.4
aF1.45
aF-28.5
aF0.72
aa(lp806
F7.0
aF1.45
aF-28.5
aF0.72
aa(lp807
F-31.4
aF0.85
aF16.3
aF0.72
aa(lp808
F7.0
aF0.85
aF16.3
aF0.72
aa(lp809
F-31.4
aF1.45
aF16.3
aF0.72
aa(lp810
F7.0
aF1.45
aF16.3
aF0.72
aa(lp811
F-31.4
aF0.85
aF-28.5
aF1.38
aa(lp812
F7.0
aF0.85
aF-28.5
aF1.38
aa(lp813
F-31.4
aF1.45
aF-28.5
aF1.38
aa(lp814
F7.0
aF1.45
aF-28.5
aF1.38
aa(lp815
F-31.4
aF0.85
aF16.3
aF1.38
aa(lp816
F7.0
aF0.85
aF16.3
aF1.38
aa(lp817
F-31.4
aF1.45
aF16.3
aF1.38
aa(lp818
F7.0
aF1.45
aF16.3
aF1.38
aaa(lp819
(lp820
F-38.5
aF0.46
aa(lp821
F12.9
aF0.46
aa(lp822
F-38.5
aF1.56
aa(lp823
F12.9
aF1.56
aaa(lp824
(lp825
F-27.8
aF0.89
aF-19.1
aa(lp826
F8.7
aF0.89
aF-19.1
aa(lp827
F-27.8
aF1.14
aF-19.1
aa(lp828
F8.7
aF1.14
aF-19.1
aa(lp829
F-27.8
aF0.89
aF4.7
aa(lp830
F8.7
aF0.89
aF4.7
aa(lp831
F-27.8
aF1.14
aF4.7
aa(lp832
F8.7
aF1.14
aF4.7
aaa(lp833
(lp834
F-11.2
aF-3.1
aF1.24
aa(lp835
F1.0
aF-3.1
aF1.24
aaa(lp836
(lp837
F-5.2
aF0.69
aaa(lp838
(lp839
F1.7
aaa(lp840
(lp841
F-4.9
aF-5.1
aF0.6
aF0.6
aa(lp842
F4.9
aF-5.1
aF0.6
aF0.6
aa(lp843
F-4.9
aF5.1
aF0.6
aF0.6
aa(lp844
F4.9
aF5.1
aF0.6
aF0.6
aa(lp845
F-4.9
aF-5.1
aF1.68
aF0.6
aa(lp846
F4.9
aF-5.1
aF1.68
aF0.6
aa(lp847
F-4.9
aF5.1
aF1.68
aF0.6
aa(lp848
F4.9
aF5.1
aF1.68
aF0.6
aa(lp849
F-4.9
aF-5.1
aF0.6
aF1.66
aa(lp850
F4.9
aF-5.1
aF0.6
aF1.66
aa(lp851
F-4.9
aF5.1
aF0.6
aF1.66
aa(lp852
F4.9
aF5.1
aF0.6
aF1.66
aa(lp853
F-4.9
aF-5.1
aF1.68
aF1.66
aa(lp854
F4.9
aF-5.1
aF1.68
aF1.66
aa(lp855
F-4.9
aF5.1
aF1.68
aF1.66
aa(lp856
F4.9
aF5.1
aF1.68
aF1.66
aaa(lp857
(lp858
F1.26
aaa(lp859
(lp860
F-10.9
aF0.73
aF-3.0
aF0.81
aF1.25
aa(lp861
F-10.9
aF0.73
aF3.5
aF0.81
aF1.25
aaa(lp862
(lp863
F-10.6
aF0.8
aF-5.3
aF0.66
aF0.72
aa(lp864
F3.4
aF0.8
aF-5.3
aF0.66
aF0.72
aa(lp865
F-10.6
aF1.12
aF-5.3
aF0.66
aF0.72
aa(lp866
F3.4
aF1.12
aF-5.3
aF0.66
aF0.72
aa(lp867
F-10.6
aF0.8
aF1.2
aF0.66
aF0.72
aa(lp868
F3.4
aF0.8
aF1.2
aF0.66
aF0.72
aa(lp869
F-10.6
aF1.12
aF1.2
aF0.66
aF0.72
aa(lp870
F3.4
aF1.12
aF1.2
aF0.66
aF0.72
aaa(lp871
(lp872
F6.6
aF0.75
aF0.5
aa(lp873
F6.6
aF1.19
aF0.5
aa(lp874
F6.6
aF0.75
aF1.12
aa(lp875
F6.6
aF1.19
aF1.12
aaa(lp876
(lp877
F-9.8
aF0.8
aF-15.4
aF1.05
aaa(lp878
(lp879
F-24.2
aF0.7
aF-14.5
aF0.72
aF3.52
aa(lp880
F6.1
aF0.7
aF-14.5
aF0.72
aF3.52
aa(lp881
F-24.2
aF1.24
aF-14.5
aF0.72
aF3.52
aa(lp882
F6.1
aF1.24
aF-14.5
aF0.72
aF3.52
aa(lp883
F-24.2
aF0.7
aF-14.5
aF1.28
aF3.52
aa(lp884
F6.1
aF0.7
aF-14.5
aF1.28
aF3.52
aa(lp885
F-24.2
aF1.24
aF-14.5
aF1.28
aF3.52
aa(lp886
F6.1
aF1.24
aF-14.5
aF1.28
aF3.52
aaa(lp887
(lp888
F-17.8
aF0.81
aF0.77
aa(lp889
F-17.8
aF0.81
aF1.31
aaa(lp890
(lp891
F1.3
aF1.6
aF0.87
aF0.8
aa(lp892
F1.3
aF1.6
aF1.45
aF0.8
aaa(lp893
(lp894
F-4.3
aF1.14
aF-4.4
aF0.89
aF0.53
aF0.46
aa(lp895
F-4.3
aF1.14
aF-4.4
aF1.04
aF0.53
aF0.46
aaa(lp896
(lp897
F0.67
aaa(lp898
(lp899
F-30.02
aF0.62
aF0.49
aaa(lp900
(lp901
F-4.4
aF0.95
aF20.6
aF0.97
aaa(lp902
(lp903
F0.6
aaa(lp904
(lp905
F1.97
aaa(lp906
(lp907
F1.5
aF1.4
aaa(lp908
(lp909
F4.45
aaa(lp910
(lp911
F1.1
aaa(lp912
(lp913
F0.4
aaa(lp914
(lp915
F-0.3
aI5
aF1.15
aF1.23
aaa(lp916
(lp917
F2.8
aF9.6
aF0.984
aF1.042
aaa(lp918
(lp919
F-4.0
aF-5.8
aF0.92
aF1.13
aF1.47
aaa(lp920
(lp921
F-8.1
aF2.2
aF0.97
aF0.97
aF1.59
aaa(lp922
(lp923
F6.0
aF1.16
aF1.29
aaa(lp924
(lp925
F10.0
aF-0.6
aF1.15
aF1.14
aaa(lp926
(lp927
I0
aaa(lp928
(lp929
I0
aaa(lp930
(lp931
I0
aaa(lp932
(lp933
I0
aaa(lp934
(lp935
F2.0
aF2.5
aF0.5
aaa(lp936
(lp937
F0.86
aF1.24
aaa(lp938
(lp939
F0.84
aaa(lp940
(lp941
F-26.5
aF0.64
aaa(lp942
(lp943
F-25.9
aF0.6
aa(lp944
F17.7
aF0.6
aaa(lp945
(lp946
I5
aI3
aF1.11
aF0.86
aF0.5
aF0.53
aaa(lp947
(lp948
I1
aI-6
aF1.22
aF1.0
aF0.89
aF1.13
aaa(lp949
(lp950
I6
aI-8
aF1.33
aF1.0
aF0.5
aF0.87
aaa(lp951
(lp952
I-28
aI-27
aF1.11
aF0.71
aF1.13
aF2.27
aaa(lp953
(lp954
I14
aI-21
aF2.0
aF1.0
aF0.39
aF1.2
aaa(lp955
(lp956
I-13
aI-13
aF1.33
aF0.71
aF0.95
aF5.13
aaa(lp957
(lp958
F3.0
aF3.48
aF1.01
aF0.89
aaa(lp959
(lp960
F-1.11
aF5.14
aF0.6
aF1.48
aaa(lp961
(lp962
F-1.88
aF2.69
aF0.6
aF1.35
aaa(lp963
(lp964
F-13.8
aF0.51
aa(lp965
F57.0
aF0.51
aa(lp966
F-13.8
aF2.75
aa(lp967
F57.0
aF2.75
aaa(lp968
(lp969
F49.2
aaa(lp970
(lp971
I16
aF5.91
aaa(lp972
(lp973
I-5
aF7.59
aa(lp974
I15
aF7.59
aaa(lp975
(lp976
I-58
aaaa(lp977
(lp978
(lp979
(lp980
g516
a(lp981
F-25.9
aaa(lp982
g519
a(lp983
F-27.0
aaaa(lp984
(lp985
g524
a(lp986
F-37.3
aaa(lp987
g525
a(lp988
F-30.0
aaaa(lp989
(lp990
g528
a(lp991
F-31.4
aF7.0
aaa(lp992
g529
a(lp993
F0.85
aF1.45
aaa(lp994
g532
a(lp995
F-28.5
aF16.3
aaa(lp996
g533
a(lp997
F0.72
aF1.38
aaaa(lp998
(lp999
g538
a(lp1000
F-38.5
aF12.9
aaa(lp1001
g539
a(lp1002
F0.46
aF1.56
aaaa(lp1003
(lp1004
g542
a(lp1005
F-27.8
aF8.7
aaa(lp1006
g543
a(lp1007
F0.89
aF1.14
aaa(lp1008
g544
a(lp1009
F-19.1
aF4.7
aaaa(lp1010
(lp1011
g547
a(lp1012
F-11.2
aF1.0
aaa(lp1013
g548
a(lp1014
F-3.1
aaa(lp1015
g549
a(lp1016
F1.24
aaaaa(lp1017
(lp1018
(lp1019
g552
a(lp1020
F-5.2
aaa(lp1021
g553
a(lp1022
F0.69
aaaa(lp1023
(lp1024
g556
a(lp1025
F1.7
aaaa(lp1026
(lp1027
g559
a(lp1028
F-4.9
aF4.9
aaa(lp1029
g560
a(lp1030
F-5.1
aF5.1
aaa(lp1031
g561
a(lp1032
F0.6
aF1.68
aaa(lp1033
g556
a(lp1034
F0.6
aF1.66
aaaa(lp1035
(lp1036
g561
a(lp1037
F1.26
aaaaa(lp1038
(lp1039
(lp1040
g566
a(lp1041
F-10.9
aaa(lp1042
g567
a(lp1043
F0.73
aaa(lp1044
g568
a(lp1045
F-3.0
aF3.5
aaa(lp1046
g569
a(lp1047
F0.81
aaa(lp1048
g556
a(lp1049
F1.25
aaaa(lp1050
(lp1051
g572
a(lp1052
F-10.6
aF3.4
aaa(lp1053
g573
a(lp1054
F0.8
aF1.12
aaa(lp1055
g574
a(lp1056
F-5.3
aF1.2
aaa(lp1057
g575
a(lp1058
F0.66
aaa(lp1059
g556
a(lp1060
F0.72
aaaa(lp1061
(lp1062
g578
a(lp1063
F6.6
aaa(lp1064
g579
a(lp1065
F0.75
aF1.19
aaa(lp1066
g556
a(lp1067
F0.5
aF1.12
aaaa(lp1068
(lp1069
g582
a(lp1070
F-9.8
aaa(lp1071
g583
a(lp1072
F0.8
aaa(lp1073
g584
a(lp1074
F-15.4
aaa(lp1075
g585
a(lp1076
F1.05
aaaa(lp1077
(lp1078
g588
a(lp1079
F-24.2
aF6.1
aaa(lp1080
g589
a(lp1081
F0.7
aF1.24
aaa(lp1082
g590
a(lp1083
F-14.5
aaa(lp1084
g591
a(lp1085
F0.72
aF1.28
aaa(lp1086
g561
a(lp1087
F3.52
aaaa(lp1088
(lp1089
g594
a(lp1090
F-17.8
aaa(lp1091
g595
a(lp1092
F0.81
aaa(lp1093
g561
a(lp1094
F0.77
aF1.31
aaaaa(lp1095
(lp1096
(lp1097
g598
a(lp1098
F1.3
aaa(lp1099
g600
a(lp1100
F1.6
aaa(lp1101
g602
a(lp1102
F0.87
aF1.45
aaa(lp1103
g603
a(lp1104
F0.8
aaaa(lp1105
(lp1106
g599
a(lp1107
F-4.3
aaa(lp1108
g606
a(lp1109
F1.14
aaa(lp1110
g601
a(lp1111
F-4.4
aaa(lp1112
g607
a(lp1113
F0.89
aF1.04
aaa(lp1114
g602
a(lp1115
F0.53
aaa(lp1116
g603
a(lp1117
F0.46
aaaaa(lp1118
(lp1119
(lp1120
g561
a(lp1121
F0.67
aaaa(lp1122
(lp1123
g612
a(lp1124
F-30.02
aaa(lp1125
g613
a(lp1126
F0.62
aaa(lp1127
g561
a(lp1128
F0.49
aaaa(lp1129
(lp1130
g616
a(lp1131
F-4.4
aaa(lp1132
g617
a(lp1133
F0.95
aaa(lp1134
g618
a(lp1135
F20.6
aaa(lp1136
g619
a(lp1137
F0.97
aaaaa(lp1138
(lp1139
(lp1140
g622
a(lp1141
F0.6
aaaaa(lp1142
(lp1143
(lp1144
g625
a(lp1145
F1.97
aaaa(lp1146
(lp1147
g625
a(lp1148
F1.5
aaa(lp1149
g628
a(lp1150
F1.4
aaaa(lp1151
(lp1152
g625
a(lp1153
F4.45
aaaa(lp1154
(lp1155
g628
a(lp1156
F1.1
aaaaa(lp1157
(lp1158
(lp1159
g622
a(lp1160
F0.4
aaaaa(lp1161
(lp1162
(lp1163
g637
a(lp1164
F-0.3
aaa(lp1165
g640
a(lp1166
I5
aaa(lp1167
g643
a(lp1168
F1.15
aaa(lp1169
g646
a(lp1170
F1.23
aaaa(lp1171
(lp1172
g651
a(lp1173
F2.8
aaa(lp1174
g652
a(lp1175
F9.6
aaa(lp1176
g653
a(lp1177
F0.984
aaa(lp1178
g654
a(lp1179
F1.042
aaaa(lp1180
(lp1181
g657
a(lp1182
F-4.0
aaa(lp1183
g658
a(lp1184
F-5.8
aaa(lp1185
g659
a(lp1186
F0.92
aaa(lp1187
g660
a(lp1188
F1.13
aaa(lp1189
g661
a(lp1190
F1.47
aaaa(lp1191
(lp1192
g666
a(lp1193
F-8.1
aaa(lp1194
g667
a(lp1195
F2.2
aaa(lp1196
g668
a(lp1197
F0.97
aaa(lp1198
g669
a(lp1199
F0.97
aaa(lp1200
g670
a(lp1201
F1.59
aaaa(lp1202
(lp1203
g673
a(lp1204
F6.0
aaa(lp1205
g674
a(lp1206
F1.16
aaa(lp1207
g675
a(lp1208
F1.29
aaaa(lp1209
(lp1210
g678
a(lp1211
F10.0
aaa(lp1212
g679
a(lp1213
F-0.6
aaa(lp1214
g680
a(lp1215
F1.15
aaa(lp1216
g681
a(lp1217
F1.14
aaaaa(lp1218
(lp1219
(lp1220
g684
a(lp1221
I0
aaaa(lp1222
(lp1223
g687
a(lp1224
I0
aaaa(lp1225
(lp1226
g690
a(lp1227
I0
aaaa(lp1228
(lp1229
g693
a(lp1230
I0
aaaaa(lp1231
(lp1232
(lp1233
g696
a(lp1234
F2.0
aaa(lp1235
g700
a(lp1236
F2.5
aaa(lp1237
g707
a(lp1238
F0.5
aaaaa(lp1239
(lp1240
(lp1241
g710
a(lp1242
F0.86
aaa(lp1243
g711
a(lp1244
F1.24
aaaa(lp1245
(lp1246
g711
a(lp1247
F0.84
aaaaa(lp1248
(lp1249
(lp1250
g716
a(lp1251
F-26.5
aaa(lp1252
g720
a(lp1253
F0.64
aaaa(lp1254
(lp1255
g726
a(lp1256
F-25.9
aF17.7
aaa(lp1257
g727
a(lp1258
F0.6
aaaaa(lp1259
(lp1260
(lp1261
g730
a(lp1262
I5
aaa(lp1263
g733
a(lp1264
I3
aaa(lp1265
g734
a(lp1266
F1.11
aaa(lp1267
g707
a(lp1268
F0.86
aaa(lp1269
g737
a(lp1270
F0.5
aaa(lp1271
g738
a(lp1272
F0.53
aaaa(lp1273
(lp1274
g741
a(lp1275
I1
aaa(lp1276
g733
a(lp1277
I-6
aaa(lp1278
g742
a(lp1279
F1.22
aaa(lp1280
g707
a(lp1281
F1.0
aaa(lp1282
g743
a(lp1283
F0.89
aaa(lp1284
g744
a(lp1285
F1.13
aaaa(lp1286
(lp1287
g747
a(lp1288
I6
aaa(lp1289
g733
a(lp1290
I-8
aaa(lp1291
g748
a(lp1292
F1.33
aaa(lp1293
g707
a(lp1294
F1.0
aaa(lp1295
g749
a(lp1296
F0.5
aaa(lp1297
g750
a(lp1298
F0.87
aaaa(lp1299
(lp1300
g753
a(lp1301
I-28
aaa(lp1302
g733
a(lp1303
I-27
aaa(lp1304
g754
a(lp1305
F1.11
aaa(lp1306
g707
a(lp1307
F0.71
aaa(lp1308
g755
a(lp1309
F1.13
aaa(lp1310
g756
a(lp1311
F2.27
aaaa(lp1312
(lp1313
g759
a(lp1314
I14
aaa(lp1315
g733
a(lp1316
I-21
aaa(lp1317
g760
a(lp1318
F2.0
aaa(lp1319
g707
a(lp1320
F1.0
aaa(lp1321
g761
a(lp1322
F0.39
aaa(lp1323
g762
a(lp1324
F1.2
aaaa(lp1325
(lp1326
g765
a(lp1327
I-13
aaa(lp1328
g733
a(lp1329
I-13
aaa(lp1330
g766
a(lp1331
F1.33
aaa(lp1332
g707
a(lp1333
F0.71
aaa(lp1334
g767
a(lp1335
F0.95
aaa(lp1336
g768
a(lp1337
F5.13
aaaaa(lp1338
(lp1339
(lp1340
g771
a(lp1341
F3.0
aaa(lp1342
g772
a(lp1343
F3.48
aaa(lp1344
g561
a(lp1345
F1.01
aaa(lp1346
g556
a(lp1347
F0.89
aaaa(lp1348
(lp1349
g775
a(lp1350
F-1.11
aaa(lp1351
g776
a(lp1352
F5.14
aaa(lp1353
g561
a(lp1354
F0.6
aaa(lp1355
g556
a(lp1356
F1.48
aaaa(lp1357
(lp1358
g779
a(lp1359
F-1.88
aaa(lp1360
g780
a(lp1361
F2.69
aaa(lp1362
g561
a(lp1363
F0.6
aaa(lp1364
g556
a(lp1365
F1.35
aaaaa(lp1366
(lp1367
(lp1368
g783
a(lp1369
F-13.8
aF57.0
aaa(lp1370
g784
a(lp1371
F0.51
aF2.75
aaaa(lp1372
(lp1373
g783
a(lp1374
F49.2
aaaa(lp1375
(lp1376
g783
a(lp1377
I16
aaa(lp1378
g791
a(lp1379
F5.91
aaaa(lp1380
(lp1381
g783
a(lp1382
I-5
aI15
aaa(lp1383
g794
a(lp1384
F7.59
aaaa(lp1385
(lp1386
g783
a(lp1387
I-58
aaaaaa.