(lp0
I3000
aI60
aI1325
a(lp1
(lp2
F12.0
aF0.5209359170592917
aa(lp3
F18.0
aF0.04413503670998642
aa(lp4
F13.0
aF0.7802579046486068
aa(lp5
F14.0
aF0.9218603919695514
aa(lp6
F12.0
aF0.3854755674353012
aa(lp7
F18.0
aF0.3736524649761709
aa(lp8
F18.0
aF0.03729419060387658
aa(lp9
F13.0
aF0.6009831582688145
aa(lp10
F12.0
aF0.8366325265365813
aa(lp11
F18.0
aF0.6742045440149668
aa(lp12
F12.0
aF0.15667849020249786
aa(lp13
F18.0
aF0.846865685065776
aa(lp14
F12.0
aF0.7959562063609361
aa(lp15
F12.0
aF0.16870105855962594
aa(lp16
F13.0
aF0.574119111075122
aa(lp17
F12.0
aF0.8510874235314463
aa(lp18
F12.0
aF0.803252299318999
aa(lp19
F13.0
aF0.04359404354015554
aa(lp20
F18.0
aF0.38195040647533635
aa(lp21
F14.0
aF0.8314504242710873
aa(lp22
F30.0
aF0.9777966918392492
aa(lp23
F12.0
aF0.4758736604447351
aa(lp24
F16.0
aF0.55910428801174
aa(lp25
F18.0
aF0.8344678940120094
aa(lp26
F18.0
aF0.34742760121921196
aa(lp27
F13.0
aF0.09226317320700174
aa(lp28
F18.0
aF0.5874729884312305
aa(lp29
F13.0
aF0.8155366964437611
aa(lp30
F12.0
aF0.1870447709589685
aa(lp31
F18.0
aF0.19806577814180887
aa(lp32
F12.0
aF0.6501708239835609
aa(lp33
F16.0
aF0.1886890734683118
aa(lp34
F13.0
aF0.34778793829131843
aa(lp35
F13.0
aF0.8267939325723069
aa(lp36
F13.0
aF0.8716124619300055
aa(lp37
F13.0
aF0.7596912466154192
aa(lp38
F12.0
aF0.2170147204013037
aa(lp39
F29.0
aF0.958183106209311
aa(lp40
F13.0
aF0.41547700124488846
aa(lp41
F13.0
aF0.8046283731196119
aa(lp42
F18.0
aF0.0750246082837164
aa(lp43
F18.0
aF0.4859076865199649
aa(lp44
F13.0
aF0.845940690269213
aa(lp45
F14.0
aF0.20432412984783174
aa(lp46
F12.0
aF0.9721350106285498
aa(lp47
F18.0
aF0.9291054247605338
aa(lp48
F18.0
aF0.13513329412649433
aa(lp49
F18.0
aF0.6044114158053281
aa(lp50
F18.0
aF0.25178263116633787
aa(lp51
F14.0
aF0.04450846681208316
aa(lp52
F12.0
aF0.25927351385482034
aa(lp53
F14.0
aF0.12852908497842866
aa(lp54
F13.0
aF0.8135187295102005
aa(lp55
F13.0
aF0.2836222288346839
aa(lp56
F13.0
aF0.934443215612091
aa(lp57
F14.0
aF0.541298981077521
aa(lp58
F12.0
aF0.16513667552155684
aa(lp59
F12.0
aF0.66422984892097
aa(lp60
F18.0
aF0.4891990941125966
aa(lp61
F18.0
aF0.1966620089587614
aa(lp62
F12.0
aF0.9253632969998241
aa(lp63
F15.0
aF0.3963999009981024
aa(lp64
F12.0
aF0.12739823667933275
aa(lp65
F18.0
aF0.006657344960800783
aa(lp66
F12.0
aF0.43774400845925204
aa(lp67
F13.0
aF0.23932248588939387
aa(lp68
F12.0
aF0.6054176069294164
aa(lp69
F12.0
aF0.6339092396148511
aa(lp70
F16.0
aF0.36038727861208364
aa(lp71
F13.0
aF0.15900868322194703
aa(lp72
F12.0
aF0.15062098734994034
aa(lp73
F13.0
aF0.5133353767717951
aa(lp74
F12.0
aF0.4353129090427986
aa(lp75
F13.0
aF0.8328458031533782
aa(lp76
F14.0
aF0.4751456968652499
aa(lp77
F12.0
aF0.1412018262686941
aa(lp78
F12.0
aF0.5613937602872017
aa(lp79
F12.0
aF0.6074311120043222
aa(lp80
F15.0
aF0.5452201255785181
aa(lp81
F12.0
aF0.8093346414875596
aa(lp82
F18.0
aF0.19992692868913328
aa(lp83
F12.0
aF0.8180165920534218
aa(lp84
F13.0
aF0.42012767879540674
aa(lp85
F13.0
aF0.15630079685936318
aa(lp86
F12.0
aF0.26817547509821815
aa(lp87
F18.0
aF0.978480199130916
aa(lp88
F13.0
aF0.10307423366545033
aa(lp89
F13.0
aF0.11732012657921857
aa(lp90
F17.0
aF0.03784166524805711
aa(lp91
F12.0
aF0.9155445949560164
aa(lp92
F18.0
aF0.5702575346598411
aa(lp93
F18.0
aF0.29881011231520294
aa(lp94
F14.0
aF0.13126353363727236
aa(lp95
F18.0
aF0.5201970670812379
aa(lp96
F16.0
aF0.20841882784007051
aa(lp97
F13.0
aF0.3594862918637969
aa(lp98
F12.0
aF0.7597117204751513
aa(lp99
F13.0
aF0.5564327693452034
aa(lp100
F12.0
aF0.4208070426133766
aa(lp101
F13.0
aF0.0661290164888075
aa(lp102
F13.0
aF0.17098670515726505
aa(lp103
F18.0
aF0.6661980981048716
aa(lp104
F12.0
aF0.7432953260836125
aa(lp105
F29.0
aF0.9879825762498469
aa(lp106
F13.0
aF0.22024005737521105
aa(lp107
F15.0
aF0.43583851809967344
aa(lp108
F18.0
aF0.8150003840221647
aa(lp109
F18.0
aF0.5870802690761692
aa(lp110
F13.0
aF0.7410831492431913
aa(lp111
F12.0
aF0.856291126849387
aa(lp112
F12.0
aF0.3547769045345326
aa(lp113
F18.0
aF0.7179644104093053
aa(lp114
F18.0
aF0.022812275314374658
aa(lp115
F18.0
aF0.3982189098725918
aa(lp116
F13.0
aF0.22450123445634662
aa(lp117
F18.0
aF0.5185435825332517
aa(lp118
F18.0
aF0.9162487735552891
aa(lp119
F12.0
aF0.5242191428054096
aa(lp120
F12.0
aF0.42030798772760336
aa(lp121
F12.0
aF0.31636138356769383
aa(lp122
F18.0
aF0.15555333238854258
aa(lp123
F13.0
aF0.22669427820965093
aa(lp124
F18.0
aF0.12711566600307286
aa(lp125
F14.0
aF0.1361343001662122
aa(lp126
F12.0
aF0.3449547569858881
aa(lp127
F18.0
aF0.6254142777448387
aa(lp128
F18.0
aF0.7824092298876902
aa(lp129
F12.0
aF0.9985661006874811
aa(lp130
F18.0
aF0.3370485512811539
aa(lp131
F15.0
aF0.3169700493212151
aa(lp132
F12.0
aF0.4565185641853006
aa(lp133
F12.0
aF0.2054308363151921
aa(lp134
F29.0
aF0.9965380063909611
aa(lp135
F12.0
aF0.4580425090693354
aa(lp136
F12.0
aF0.8789650844275362
aa(lp137
F12.0
aF0.41548932408809575
aa(lp138
F13.0
aF0.36059113001330567
aa(lp139
F18.0
aF0.7098853357456171
aa(lp140
F12.0
aF0.9190629276729295
aa(lp141
F12.0
aF0.4064429441028883
aa(lp142
F12.0
aF0.20408199539816768
aa(lp143
F29.0
aF0.9535218991150506
aa(lp144
F14.0
aF0.3868807389033728
aa(lp145
F13.0
aF0.1277698438946282
aa(lp146
F18.0
aF0.7289691548865599
aa(lp147
F18.0
aF0.9871457961401878
aa(lp148
F12.0
aF0.7912536738561059
aa(lp149
F29.0
aF0.9332229180068524
aa(lp150
F15.0
aF0.839611312901076
aa(lp151
F12.0
aF0.9380447797193496
aa(lp152
F13.0
aF0.10642166326437992
aa(lp153
F12.0
aF0.34370232100563225
aa(lp154
F29.0
aF0.9596414428776527
aa(lp155
F14.0
aF0.9259203266495809
aa(lp156
F18.0
aF0.8541222492800227
aa(lp157
F13.0
aF0.10449872916324981
aa(lp158
F13.0
aF0.14014331610731617
aa(lp159
F18.0
aF0.6379198246724835
aa(lp160
F13.0
aF0.20318140193520742
aa(lp161
F14.0
aF0.21590055773699982
aa(lp162
F12.0
aF0.8912645360644565
aa(lp163
F12.0
aF0.8867874874252739
aa(lp164
F13.0
aF0.9800284134196143
aa(lp165
F12.0
aF0.32283722704100476
aa(lp166
F13.0
aF0.04731916003571244
aa(lp167
F13.0
aF0.7724703390922613
aa(lp168
F12.0
aF0.5872047042319956
aa(lp169
F18.0
aF0.1869854170483344
aa(lp170
F18.0
aF0.8929986665168433
aa(lp171
F18.0
aF0.10105005338335113
aa(lp172
F18.0
aF0.308587244283365
aa(lp173
F12.0
aF0.4290123597305821
aa(lp174
F18.0
aF0.7562720098918596
aa(lp175
F18.0
aF0.6391032789395673
aa(lp176
F18.0
aF0.7156478296033336
aa(lp177
F13.0
aF0.13775598117614934
aa(lp178
F18.0
aF0.22759825682963994
aa(lp179
F18.0
aF0.3963254289222393
aa(lp180
F15.0
aF0.880926310464872
aa(lp181
F13.0
aF0.5553147351428109
aa(lp182
F16.0
aF0.42534825327255643
aa(lp183
F12.0
aF0.916308120605127
aa(lp184
F18.0
aF0.9578028711463641
aa(lp185
F13.0
aF0.9730977520988898
aa(lp186
F18.0
aF0.4447257802443189
aa(lp187
F13.0
aF0.42303787231509005
aa(lp188
F12.0
aF0.9343095159081228
aa(lp189
F14.0
aF0.8717470285775296
aa(lp190
F14.0
aF0.13440464454787807
aa(lp191
F13.0
aF0.2770078732950359
aa(lp192
F12.0
aF0.4900503990010079
aa(lp193
F18.0
aF0.34238663509526307
aa(lp194
F13.0
aF0.4422796702705563
aa(lp195
F12.0
aF0.8525763229138943
aa(lp196
F13.0
aF0.8994211776848381
aa(lp197
F14.0
aF0.8950893975120786
aa(lp198
F15.0
aF0.7903204784429666
aa(lp199
F12.0
aF0.8687796041924298
aa(lp200
F13.0
aF0.720766274246637
aa(lp201
F13.0
aF0.482269762566483
aa(lp202
F18.0
aF0.6994344826303783
aa(lp203
F12.0
aF0.992019928875443
aa(lp204
F12.0
aF0.23276662323603522
aa(lp205
F13.0
aF0.838490162365762
aa(lp206
F12.0
aF0.6048898942379944
aa(lp207
F18.0
aF0.5899015257581178
aa(lp208
F15.0
aF0.9679966500282345
aa(lp209
F13.0
aF0.3367240545042266
aa(lp210
F16.0
aF0.8590272620688871
aa(lp211
F18.0
aF0.46754088682319134
aa(lp212
F18.0
aF0.9426656484326369
aa(lp213
F12.0
aF0.6611016975820587
aa(lp214
F12.0
aF0.7993650382147283
aa(lp215
F18.0
aF0.016559459635359715
aa(lp216
F15.0
aF0.6469563553721749
aa(lp217
F13.0
aF0.25206977527266056
aa(lp218
F12.0
aF0.6227165042318181
aa(lp219
F12.0
aF0.2077221955074536
aa(lp220
F18.0
aF0.24630749078696246
aa(lp221
F12.0
aF0.9662716471811638
aa(lp222
F18.0
aF0.9397363132209161
aa(lp223
F18.0
aF0.09898236644618323
aa(lp224
F15.0
aF0.002580337508295095
aa(lp225
F13.0
aF0.5998065866387495
aa(lp226
F18.0
aF0.9936043844122396
aa(lp227
F18.0
aF0.22235846525813202
aa(lp228
F12.0
aF0.6225695772610966
aa(lp229
F12.0
aF0.49406712095497785
aa(lp230
F18.0
aF0.9396687631589715
aa(lp231
F14.0
aF0.4268268981080116
aa(lp232
F12.0
aF0.46650981540669256
aa(lp233
F12.0
aF0.9016933394927222
aa(lp234
F12.0
aF0.08498671838555431
aa(lp235
F13.0
aF0.5772909442913036
aa(lp236
F14.0
aF0.6878640132203
aa(lp237
F18.0
aF0.3716716522490867
aa(lp238
F13.0
aF0.025683720804976138
aa(lp239
F12.0
aF0.9853324142126934
aa(lp240
F12.0
aF0.910608810711653
aa(lp241
F18.0
aF0.169167266026107
aa(lp242
F29.0
aF0.8843279034375163
aa(lp243
F13.0
aF0.7636879678633651
aa(lp244
F18.0
aF0.06836127904912112
aa(lp245
F13.0
aF0.37842663486945566
aa(lp246
F12.0
aF0.4332311271736541
aa(lp247
F12.0
aF0.4664479439931316
aa(lp248
F13.0
aF0.9588309592592451
aa(lp249
F18.0
aF0.03173549192099982
aa(lp250
F12.0
aF0.5283929673046878
aa(lp251
F14.0
aF0.15360413264814687
aa(lp252
F13.0
aF0.8074722802291877
aa(lp253
F13.0
aF0.8983187311544737
aa(lp254
F13.0
aF0.5899759707122221
aa(lp255
F13.0
aF0.0973879505472783
aa(lp256
F18.0
aF0.13253378375370448
aa(lp257
F13.0
aF0.7690247166010533
aa(lp258
F13.0
aF0.3580154158938579
aa(lp259
F18.0
aF0.34461514936044807
aa(lp260
F29.0
aF0.9877389576736418
aa(lp261
F18.0
aF0.36828969421978514
aa(lp262
F17.0
aF0.1115681445163879
aa(lp263
F13.0
aF0.0993129664906755
aa(lp264
F14.0
aF0.615011077423168
aa(lp265
F13.0
aF0.29305046235523835
aa(lp266
F13.0
aF0.39958322376103445
aa(lp267
F14.0
aF0.2688186247185127
aa(lp268
F18.0
aF0.6581005193244627
aa(lp269
F14.0
aF0.8125979789938644
aa(lp270
F14.0
aF0.7087564094236469
aa(lp271
F14.0
aF0.7047376456257337
aa(lp272
F18.0
aF0.837568388811612
aa(lp273
F18.0
aF0.4217270022687696
aa(lp274
F18.0
aF0.28009723414579
aa(lp275
F13.0
aF0.25733032408103834
aa(lp276
F16.0
aF0.288690752047902
aa(lp277
F13.0
aF0.9551044237792587
aa(lp278
F18.0
aF0.36088280672758455
aa(lp279
F13.0
aF0.6787692293025145
aa(lp280
F13.0
aF0.5193501345149342
aa(lp281
F14.0
aF0.9729114125066126
aa(lp282
F15.0
aF0.9059854725659529
aa(lp283
F15.0
aF0.8607316121150205
aa(lp284
F12.0
aF0.7701715156781236
aa(lp285
F18.0
aF0.6037051889601678
aa(lp286
F12.0
aF0.32201782045368593
aa(lp287
F13.0
aF0.8797055976625325
aa(lp288
F16.0
aF0.39748315959268404
aa(lp289
F18.0
aF0.5153305509238525
aa(lp290
F16.0
aF0.2619852819123525
aa(lp291
F12.0
aF0.1736964202197506
aa(lp292
F14.0
aF0.6385246075746108
aa(lp293
F18.0
aF0.14317423105187113
aa(lp294
F14.0
aF0.6719175575141103
aa(lp295
F29.0
aF0.8799584598500296
aa(lp296
F18.0
aF0.7278385228627409
aa(lp297
F14.0
aF0.4810889929532349
aa(lp298
F13.0
aF0.8918651114558414
aa(lp299
F16.0
aF0.4987031710800605
aa(lp300
F12.0
aF0.42736595090856944
aa(lp301
F13.0
aF0.7692481207343831
aa(lp302
F12.0
aF0.6961680658468525
aa(lp303
F12.0
aF0.79581706220459
aa(lp304
F16.0
aF0.20641954522152425
aa(lp305
F18.0
aF0.9611703591469075
aa(lp306
F13.0
aF0.778781357567526
aa(lp307
F12.0
aF0.6354229857319494
aa(lp308
F18.0
aF0.30217844012082495
aa(lp309
F14.0
aF0.2251111950757488
aa(lp310
F16.0
aF0.4275696389511141
aa(lp311
F30.0
aF0.9832302921198587
aa(lp312
F18.0
aF0.19824183866765507
aa(lp313
F13.0
aF0.15031383521087832
aa(lp314
F18.0
aF0.020268913553681638
aa(lp315
F18.0
aF0.730286955733733
aa(lp316
F12.0
aF0.5062698044777649
aa(lp317
F18.0
aF0.3929466118706431
aa(lp318
F12.0
aF0.1902011698573132
aa(lp319
F18.0
aF0.39589294013583076
aa(lp320
F12.0
aF0.9865516441183462
aa(lp321
F12.0
aF0.37603831128387727
aa(lp322
F14.0
aF0.7849615690606916
aa(lp323
F15.0
aF0.7979123717288783
aa(lp324
F15.0
aF0.09955915600736874
aa(lp325
F14.0
aF0.8247315713273067
aa(lp326
F12.0
aF0.2728541038048163
aa(lp327
F14.0
aF0.3278123763702852
aa(lp328
F14.0
aF0.47226876797431877
aa(lp329
F13.0
aF0.8760304188577299
aa(lp330
F13.0
aF0.27086144112966126
aa(lp331
F13.0
aF0.5248019146817994
aa(lp332
F16.0
aF0.3996813331941528
aa(lp333
F16.0
aF0.5516910880590065
aa(lp334
F18.0
aF0.45972130324473814
aa(lp335
F12.0
aF0.24819699847734694
aa(lp336
F18.0
aF0.2697066352401127
aa(lp337
F12.0
aF0.20574653433496143
aa(lp338
F13.0
aF0.5936849973304041
aa(lp339
F18.0
aF0.586725106385868
aa(lp340
F13.0
aF0.884404516827295
aa(lp341
F18.0
aF0.21174809547366563
aa(lp342
F16.0
aF0.7824696564900013
aa(lp343
F18.0
aF0.24161879213394197
aa(lp344
F13.0
aF0.09360989426808519
aa(lp345
F13.0
aF0.1880427446631474
aa(lp346
F18.0
aF0.13497851853200027
aa(lp347
F14.0
aF0.2660212541819439
aa(lp348
F14.0
aF0.931407944867736
aa(lp349
F29.0
aF0.995550800128465
aa(lp350
F18.0
aF0.3691713629054378
aa(lp351
F18.0
aF0.3546659112076607
aa(lp352
F12.0
aF0.5967436919202667
aa(lp353
F13.0
aF0.872111282078398
aa(lp354
F13.0
aF0.24274845181158913
aa(lp355
F12.0
aF0.21730677343081048
aa(lp356
F14.0
aF0.9172329746116844
aa(lp357
F13.0
aF0.07418259982191504
aa(lp358
F13.0
aF0.8003954448691517
aa(lp359
F13.0
aF0.17180081439877404
aa(lp360
F12.0
aF0.30182271097881613
aa(lp361
F18.0
aF0.7940813662149169
aa(lp362
F18.0
aF0.28148608535870245
aa(lp363
F18.0
aF0.769694225038263
aa(lp364
F18.0
aF0.13647587680858356
aa(lp365
F17.0
aF0.3002949793547378
aa(lp366
F18.0
aF0.8613498675778923
aa(lp367
F13.0
aF0.44762574507717034
aa(lp368
F29.0
aF0.9316954556619812
aa(lp369
F12.0
aF0.6327473898332954
aa(lp370
F15.0
aF0.8117535053821165
aa(lp371
F18.0
aF0.6988245965560108
aa(lp372
F12.0
aF0.239146542108
aa(lp373
F13.0
aF0.9603383334791243
aa(lp374
F12.0
aF0.4292125559776129
aa(lp375
F14.0
aF0.7327305828859852
aa(lp376
F12.0
aF0.33409743095648475
aa(lp377
F18.0
aF0.44167883099586597
aa(lp378
F18.0
aF0.4279596888338718
aa(lp379
F18.0
aF0.6346843071173569
aa(lp380
F15.0
aF0.46950702018520846
aa(lp381
F18.0
aF0.8724344682379866
aa(lp382
F16.0
aF0.6461485733866384
aa(lp383
F30.0
aF0.9942929556494019
aa(lp384
F18.0
aF0.0741520534762118
aa(lp385
F13.0
aF0.7503144539014701
aa(lp386
F18.0
aF0.5884705033989766
aa(lp387
F14.0
aF0.27046735719069004
aa(lp388
F18.0
aF0.44403428775674775
aa(lp389
F12.0
aF0.7061985635039206
aa(lp390
F15.0
aF0.9320580194123989
aa(lp391
F12.0
aF0.47304666887435703
aa(lp392
F18.0
aF0.6090425456999791
aa(lp393
F18.0
aF0.9917011580298141
aa(lp394
F14.0
aF0.14767255052118933
aa(lp395
F13.0
aF0.8884080290664368
aa(lp396
F18.0
aF0.29493520989155386
aa(lp397
F13.0
aF0.4681372185148796
aa(lp398
F13.0
aF0.10799164508617781
aa(lp399
F13.0
aF0.8192388669181243
aa(lp400
F30.0
aF0.9836344348783542
aa(lp401
F14.0
aF0.0887542282568928
aa(lp402
F18.0
aF0.6462971002880444
aa(lp403
F18.0
aF0.6619395396193138
aa(lp404
F18.0
aF0.42207259680988063
aa(lp405
F13.0
aF0.7300563336390011
aa(lp406
F13.0
aF0.6395300822923086
aa(lp407
F13.0
aF0.27540780872414344
aa(lp408
F12.0
aF0.13232423458537987
aa(lp409
F14.0
aF0.31888318887545214
aa(lp410
F30.0
aF0.9930204469043291
aa(lp411
F15.0
aF0.9316483497646025
aa(lp412
F18.0
aF0.10466016166709322
aa(lp413
F16.0
aF0.43821413470526277
aa(lp414
F18.0
aF0.9949187694383124
aa(lp415
F12.0
aF0.3771738049323105
aa(lp416
F18.0
aF0.972124647576431
aa(lp417
F18.0
aF0.3672325157936144
aa(lp418
F13.0
aF0.9742656380429751
aa(lp419
F18.0
aF0.9862428653308957
aa(lp420
F13.0
aF0.9858639725420124
aa(lp421
F15.0
aF0.3532624307014723
aa(lp422
F12.0
aF0.9589410624789928
aa(lp423
F18.0
aF0.4747288553778932
aa(lp424
F15.0
aF0.5049755255822197
aa(lp425
F13.0
aF0.05959213785760801
aa(lp426
F18.0
aF0.6909155938766551
aa(lp427
F18.0
aF0.45655330080762824
aa(lp428
F30.0
aF0.9763906612984384
aa(lp429
F13.0
aF0.9570706852838091
aa(lp430
F18.0
aF0.025312039871394916
aa(lp431
F13.0
aF0.7463690202255798
aa(lp432
F30.0
aF0.9672925897472432
aa(lp433
F18.0
aF0.7858222226745634
aa(lp434
F18.0
aF0.40395633601432007
aa(lp435
F13.0
aF0.48010948722177854
aa(lp436
F13.0
aF0.9140295977877199
aa(lp437
F12.0
aF0.5693967540886914
aa(lp438
F12.0
aF0.964703184903138
aa(lp439
F13.0
aF0.32264678672846603
aa(lp440
F13.0
aF0.21773018823279475
aa(lp441
F16.0
aF0.010559450405824016
aa(lp442
F12.0
aF0.2660925000996425
aa(lp443
F15.0
aF0.8959836224635058
aa(lp444
F18.0
aF0.26466424054777815
aa(lp445
F13.0
aF0.13524026872152684
aa(lp446
F13.0
aF0.18780791815936845
aa(lp447
F12.0
aF0.5401752537967323
aa(lp448
F16.0
aF0.1863127666275814
aa(lp449
F15.0
aF0.7389804511015287
aa(lp450
F18.0
aF0.5957421906958346
aa(lp451
F12.0
aF0.08574818006461227
aa(lp452
F13.0
aF0.0991983427617662
aa(lp453
F12.0
aF0.35439299719161005
aa(lp454
F15.0
aF0.6191488109119653
aa(lp455
F13.0
aF0.22732236843354986
aa(lp456
F13.0
aF0.8626265535492673
aa(lp457
F13.0
aF0.18706571832482746
aa(lp458
F15.0
aF0.6342013083705786
aa(lp459
F12.0
aF0.3303463182319705
aa(lp460
F12.0
aF0.41674529163484575
aa(lp461
F14.0
aF0.793373028518143
aa(lp462
F15.0
aF0.5883877285793772
aa(lp463
F13.0
aF0.8511932596476863
aa(lp464
F18.0
aF0.8904489661476397
aa(lp465
F18.0
aF0.22625494116208034
aa(lp466
F18.0
aF0.4082585407715186
aa(lp467
F18.0
aF0.5321158290084288
aa(lp468
F15.0
aF0.5695291618486086
aa(lp469
F13.0
aF0.8959536310021922
aa(lp470
F13.0
aF0.9247114144036505
aa(lp471
F18.0
aF0.6599781744426447
aa(lp472
F13.0
aF0.9725716928360625
aa(lp473
F13.0
aF0.8271579631515547
aa(lp474
F13.0
aF0.9612299771140418
aa(lp475
F13.0
aF0.7007324564991013
aa(lp476
F14.0
aF0.9493597250113888
aa(lp477
F16.0
aF0.5928175030427482
aa(lp478
F15.0
aF0.6697651540912766
aa(lp479
F18.0
aF0.7293400346539078
aa(lp480
F18.0
aF0.5721046581502164
aa(lp481
F18.0
aF0.40031326587824756
aa(lp482
F13.0
aF0.3729753211732681
aa(lp483
F18.0
aF0.20714562477733628
aa(lp484
F12.0
aF0.09895208979079068
aa(lp485
F18.0
aF0.7577560802173818
aa(lp486
F13.0
aF0.36499376273695944
aa(lp487
F18.0
aF0.5889975182260201
aa(lp488
F18.0
aF0.11482415438999041
aa(lp489
F13.0
aF0.4686033805126435
aa(lp490
F12.0
aF0.19670450853375254
aa(lp491
F13.0
aF0.8255469319961061
aa(lp492
F18.0
aF0.7088654887318913
aa(lp493
F18.0
aF0.21949969302807823
aa(lp494
F13.0
aF0.2869429520723646
aa(lp495
F18.0
aF0.10400443224787742
aa(lp496
F13.0
aF0.24588923266517493
aa(lp497
F30.0
aF0.987331009040798
aa(lp498
F13.0
aF0.3535200919472141
aa(lp499
F18.0
aF0.28380336985583554
aa(lp500
F16.0
aF0.11236200492325296
aa(lp501
F13.0
aF0.8646538290180633
aa(lp502
F15.0
aF0.3940987642094069
aa(lp503
F13.0
aF0.7516166588379534
aa(lp504
F16.0
aF0.33702584248795414
aa(lp505
F12.0
aF0.14403303713823068
aa(lp506
F18.0
aF0.9876592475973515
aa(lp507
F18.0
aF0.13910875041805318
aa(lp508
F13.0
aF0.6933279646329097
aa(lp509
F18.0
aF0.08707258887444444
aa(lp510
F13.0
aF0.9471420784319947
aa(lp511
F18.0
aF0.790207651100091
aa(lp512
F18.0
aF0.054674394943672086
aa(lp513
F18.0
aF0.20020211043422512
aa(lp514
F18.0
aF0.32906931434413217
aa(lp515
F14.0
aF0.7488427773224281
aa(lp516
F18.0
aF0.7255755899810677
aa(lp517
F13.0
aF0.40542112081255866
aa(lp518
F18.0
aF0.22763012877672595
aa(lp519
F18.0
aF0.700839407160064
aa(lp520
F13.0
aF0.23234677418027552
aa(lp521
F18.0
aF0.09560636489158904
aa(lp522
F18.0
aF0.9437974830401693
aa(lp523
F14.0
aF0.2778096526206408
aa(lp524
F18.0
aF0.8314551456605518
aa(lp525
F16.0
aF0.13376234301865964
aa(lp526
F14.0
aF0.9409536684057638
aa(lp527
F13.0
aF0.3917910625150729
aa(lp528
F14.0
aF0.8231079492373754
aa(lp529
F29.0
aF0.9188804892043806
aa(lp530
F12.0
aF0.11227424905951042
aa(lp531
F13.0
aF0.12320937587235489
aa(lp532
F13.0
aF0.4941368329655206
aa(lp533
F29.0
aF0.9807668757465235
aa(lp534
F13.0
aF0.1458211242098916
aa(lp535
F13.0
aF0.6127978898317098
aa(lp536
F13.0
aF0.5014770224837641
aa(lp537
F13.0
aF0.2950882700741423
aa(lp538
F18.0
aF0.12097059369554361
aa(lp539
F16.0
aF0.7509751692135698
aa(lp540
F13.0
aF0.25698485461837717
aa(lp541
F13.0
aF0.6811290092467189
aa(lp542
F13.0
aF0.9311406548216241
aa(lp543
F14.0
aF0.20254813454653442
aa(lp544
F13.0
aF0.4073041172847987
aa(lp545
F14.0
aF0.667236754153091
aa(lp546
F18.0
aF0.1467352866422349
aa(lp547
F17.0
aF0.27208293450381293
aa(lp548
F15.0
aF0.6697390903957285
aa(lp549
F13.0
aF0.3727402040597224
aa(lp550
F15.0
aF0.06261077422959437
aa(lp551
F12.0
aF0.36783020583701226
aa(lp552
F14.0
aF0.3482230992992711
aa(lp553
F18.0
aF0.002820653406614945
aa(lp554
F12.0
aF0.2663797579885645
aa(lp555
F18.0
aF0.9269226988087436
aa(lp556
F14.0
aF0.7452443741091522
aa(lp557
F16.0
aF0.2855208618649665
aa(lp558
F18.0
aF0.04216979647160581
aa(lp559
F15.0
aF0.351080203308169
aa(lp560
F18.0
aF0.9777863402908803
aa(lp561
F13.0
aF0.5143138449870026
aa(lp562
F12.0
aF0.39842573191577685
aa(lp563
F13.0
aF0.6315866092508664
aa(lp564
F18.0
aF0.7041695402080926
aa(lp565
F15.0
aF0.5434861221185593
aa(lp566
F18.0
aF0.9279906448291406
aa(lp567
F13.0
aF0.8748021732225654
aa(lp568
F29.0
aF0.9449362212710838
aa(lp569
F12.0
aF0.2872928794106845
aa(lp570
F18.0
aF0.6981655829831536
aa(lp571
F30.0
aF0.9719960808231543
aa(lp572
F18.0
aF0.19470584556215348
aa(lp573
F14.0
aF0.8685200690382668
aa(lp574
F18.0
aF0.6938055543978484
aa(lp575
F18.0
aF0.8262360990634999
aa(lp576
F18.0
aF0.7127906799641528
aa(lp577
F13.0
aF0.14220414530000625
aa(lp578
F18.0
aF0.1510333682776954
aa(lp579
F18.0
aF0.1681946862699117
aa(lp580
F12.0
aF0.11967477672825542
aa(lp581
F13.0
aF0.9788765174644963
aa(lp582
F14.0
aF0.2522802728381203
aa(lp583
F18.0
aF0.2573074441276026
aa(lp584
F18.0
aF0.30827010262494087
aa(lp585
F18.0
aF0.44736691667993794
aa(lp586
F14.0
aF0.7190697279504679
aa(lp587
F13.0
aF0.9771002473021001
aa(lp588
F14.0
aF0.6012842817267398
aa(lp589
F16.0
aF0.8817413598880559
aa(lp590
F18.0
aF0.5464180247559052
aa(lp591
F18.0
aF0.3107212666671726
aa(lp592
F18.0
aF0.4817635492006565
aa(lp593
F17.0
aF0.377025498472954
aa(lp594
F18.0
aF0.6075724158562614
aa(lp595
F14.0
aF0.3069851468139236
aa(lp596
F18.0
aF0.5437048434127406
aa(lp597
F29.0
aF0.8799573287181479
aa(lp598
F14.0
aF0.29114011268839
aa(lp599
F12.0
aF0.2564989678157351
aa(lp600
F16.0
aF0.5942427500537402
aa(lp601
F18.0
aF0.8166445639651237
aa(lp602
F29.0
aF0.9463551544792849
aa(lp603
F12.0
aF0.10227283275512669
aa(lp604
F12.0
aF0.354689829052909
aa(lp605
F12.0
aF0.1889795448829159
aa(lp606
F15.0
aF0.728022630231512
aa(lp607
F18.0
aF0.818514399019719
aa(lp608
F14.0
aF0.6694050521456428
aa(lp609
F18.0
aF0.9065912675674912
aa(lp610
F16.0
aF0.28167231417275945
aa(lp611
F16.0
aF0.16024199129589195
aa(lp612
F18.0
aF0.9056118956117908
aa(lp613
F14.0
aF0.06644854386751464
aa(lp614
F15.0
aF0.6132985013827501
aa(lp615
F18.0
aF0.47159030669493934
aa(lp616
F15.0
aF0.47056328961433086
aa(lp617
F14.0
aF0.49199911257965195
aa(lp618
F18.0
aF0.6306265239818285
aa(lp619
F18.0
aF0.7844075406289013
aa(lp620
F14.0
aF0.6713718119086103
aa(lp621
F12.0
aF0.09897151810765974
aa(lp622
F16.0
aF0.9720707906502359
aa(lp623
F12.0
aF0.12161308284551713
aa(lp624
F14.0
aF0.3150784145237385
aa(lp625
F18.0
aF0.5320299158609402
aa(lp626
F30.0
aF0.9675312477241579
aa(lp627
F18.0
aF0.9399148916972782
aa(lp628
F16.0
aF0.13873338365387186
aa(lp629
F18.0
aF0.05531864889259786
aa(lp630
F14.0
aF0.16784535468856115
aa(lp631
F13.0
aF0.8911841771528638
aa(lp632
F18.0
aF0.5132606397639312
aa(lp633
F14.0
aF0.49662788143942405
aa(lp634
F14.0
aF0.7094815652124682
aa(lp635
F17.0
aF0.035222665744251265
aa(lp636
F12.0
aF0.07647301548911163
aa(lp637
F15.0
aF0.45924972194484137
aa(lp638
F18.0
aF0.5503937937642165
aa(lp639
F14.0
aF0.2608837034148941
aa(lp640
F13.0
aF0.96873398719109
aa(lp641
F17.0
aF0.4178828417843361
aa(lp642
F30.0
aF0.9692821088285579
aa(lp643
F18.0
aF0.7708462766949467
aa(lp644
F12.0
aF0.27824914834496023
aa(lp645
F18.0
aF0.4503499717962616
aa(lp646
F12.0
aF0.10155222560383169
aa(lp647
F13.0
aF0.9780976812761036
aa(lp648
F18.0
aF0.6081713510377235
aa(lp649
F13.0
aF0.9948058866250185
aa(lp650
F14.0
aF0.8104945720608515
aa(lp651
F18.0
aF0.6937270646376102
aa(lp652
F18.0
aF0.18642217033936037
aa(lp653
F14.0
aF0.3185240450733093
aa(lp654
F18.0
aF0.1799985141711922
aa(lp655
F17.0
aF0.25484255352739843
aa(lp656
F18.0
aF0.9085952298087224
aa(lp657
F18.0
aF0.5500916788833617
aa(lp658
F18.0
aF0.5640453031601538
aa(lp659
F14.0
aF0.4681243769261672
aa(lp660
F12.0
aF0.31326873379179454
aa(lp661
F18.0
aF0.6011453768754017
aa(lp662
F18.0
aF0.7627281418360669
aa(lp663
F18.0
aF0.002832159374373323
aa(lp664
F18.0
aF0.537720097395916
aa(lp665
F14.0
aF0.6857017150134729
aa(lp666
F18.0
aF0.7426340751650364
aa(lp667
F15.0
aF0.7316078911917168
aa(lp668
F29.0
aF0.973150790976924
aa(lp669
F18.0
aF0.9535870816201919
aa(lp670
F18.0
aF0.5318102343297944
aa(lp671
F18.0
aF0.126486688774949
aa(lp672
F15.0
aF0.18267528125561155
aa(lp673
F18.0
aF0.42923312517570966
aa(lp674
F12.0
aF0.23696732866605402
aa(lp675
F16.0
aF0.08203724612236397
aa(lp676
F18.0
aF0.6726584670001333
aa(lp677
F18.0
aF0.6839404419409336
aa(lp678
F14.0
aF0.23388627981769705
aa(lp679
F14.0
aF0.5144827369970556
aa(lp680
F18.0
aF0.5182095521300263
aa(lp681
F14.0
aF0.8463118715106396
aa(lp682
F18.0
aF0.3836681751359454
aa(lp683
F29.0
aF0.9744732084856195
aa(lp684
F14.0
aF0.15662569496685352
aa(lp685
F18.0
aF0.4807950837779077
aa(lp686
F18.0
aF0.7922314410900262
aa(lp687
F14.0
aF0.08518527804218892
aa(lp688
F14.0
aF0.5033818504310009
aa(lp689
F18.0
aF0.3594142340333461
aa(lp690
F12.0
aF0.20042714376281665
aa(lp691
F14.0
aF0.1283284164922032
aa(lp692
F18.0
aF0.745623632101023
aa(lp693
F14.0
aF0.06125708803595267
aa(lp694
F12.0
aF0.11581226089401594
aa(lp695
F14.0
aF0.052934129418248904
aa(lp696
F12.0
aF0.24408797582602898
aa(lp697
F18.0
aF0.30885394689521944
aa(lp698
F15.0
aF0.8247999963478415
aa(lp699
F18.0
aF0.01769267342944198
aa(lp700
F18.0
aF0.3607263004671402
aa(lp701
F18.0
aF0.5603818587272633
aa(lp702
F14.0
aF0.9494466684559284
aa(lp703
F29.0
aF0.9920511354940029
aa(lp704
F30.0
aF0.9744932440450479
aa(lp705
F14.0
aF0.5876719461829815
aa(lp706
F13.0
aF0.9914260341413175
aa(lp707
F18.0
aF0.9201910398650845
aa(lp708
F18.0
aF0.15273018041708547
aa(lp709
F29.0
aF0.9437630151105403
aa(lp710
F16.0
aF0.8225039454270439
aa(lp711
F12.0
aF0.2522556051687526
aa(lp712
F29.0
aF0.8997553863926289
aa(lp713
F18.0
aF0.09951240099341462
aa(lp714
F14.0
aF0.3996705283260595
aa(lp715
F18.0
aF0.09881432052952414
aa(lp716
F18.0
aF0.20349230100523544
aa(lp717
F18.0
aF0.7958618806707264
aa(lp718
F18.0
aF0.43780827307523673
aa(lp719
F18.0
aF0.6166364712373664
aa(lp720
F18.0
aF0.8071313358514186
aa(lp721
F13.0
aF0.9435907189805915
aa(lp722
F18.0
aF0.6123502912520852
aa(lp723
F14.0
aF0.5273318563821893
aa(lp724
F18.0
aF0.2601924078242789
aa(lp725
F16.0
aF0.9469979578976464
aa(lp726
F14.0
aF0.23730298179712586
aa(lp727
F17.0
aF0.8936231476601114
aa(lp728
F13.0
aF0.9260585511315126
aa(lp729
F18.0
aF0.32029389291655846
aa(lp730
F14.0
aF0.021656362577479216
aa(lp731
F16.0
aF0.6024900474091908
aa(lp732
F14.0
aF0.3452647046768261
aa(lp733
F14.0
aF0.3666321071629449
aa(lp734
F18.0
aF0.12128436232348427
aa(lp735
F18.0
aF0.025607660151541287
aa(lp736
F18.0
aF0.8628237758644127
aa(lp737
F15.0
aF0.03078967767630241
aa(lp738
F18.0
aF0.14891390071920954
aa(lp739
F15.0
aF0.299651605564989
aa(lp740
F18.0
aF0.9418698478544716
aa(lp741
F18.0
aF0.1189411508454942
aa(lp742
F14.0
aF0.5306629505288954
aa(lp743
F16.0
aF0.34356857990957923
aa(lp744
F16.0
aF0.7857742715147726
aa(lp745
F17.0
aF0.9378546588858865
aa(lp746
F14.0
aF0.7873740803005805
aa(lp747
F29.0
aF0.8819431999168631
aa(lp748
F18.0
aF0.988222910128584
aa(lp749
F18.0
aF0.9799561775311981
aa(lp750
F14.0
aF0.27389841864173053
aa(lp751
F18.0
aF0.18131484146229018
aa(lp752
F14.0
aF0.07807958416342153
aa(lp753
F18.0
aF0.6385709482939008
aa(lp754
F16.0
aF0.5109391791554739
aa(lp755
F18.0
aF0.7059010740031377
aa(lp756
F16.0
aF0.07126051910895193
aa(lp757
F18.0
aF0.3000508602880149
aa(lp758
F18.0
aF0.19751909584778268
aa(lp759
F18.0
aF0.07941911752667134
aa(lp760
F16.0
aF0.5017759556857035
aa(lp761
F15.0
aF0.21835485165258428
aa(lp762
F17.0
aF0.6718611445584346
aa(lp763
F15.0
aF0.2890466693125635
aa(lp764
F14.0
aF0.5821084200301551
aa(lp765
F12.0
aF0.2528111089797964
aa(lp766
F18.0
aF0.296330557222202
aa(lp767
F16.0
aF0.031292875205826666
aa(lp768
F18.0
aF0.6940663426455661
aa(lp769
F14.0
aF0.2740547640748284
aa(lp770
F18.0
aF0.19351658537218872
aa(lp771
F14.0
aF0.446423814252661
aa(lp772
F13.0
aF0.9351780904413638
aa(lp773
F18.0
aF0.8703164362052827
aa(lp774
F13.0
aF0.9574502228301647
aa(lp775
F18.0
aF0.7217837988088348
aa(lp776
F18.0
aF0.7189030094989383
aa(lp777
F14.0
aF0.16232253189371124
aa(lp778
F14.0
aF0.3738933765612037
aa(lp779
F14.0
aF0.6188054854599133
aa(lp780
F16.0
aF0.25105779162045017
aa(lp781
F14.0
aF0.2760193705421025
aa(lp782
F18.0
aF0.025749593905457117
aa(lp783
F14.0
aF0.3898063011057643
aa(lp784
F14.0
aF0.7148405818450052
aa(lp785
F18.0
aF0.33368769640155266
aa(lp786
F18.0
aF0.3877841242152657
aa(lp787
F13.0
aF0.9442284933528902
aa(lp788
F18.0
aF0.7157086559412202
aa(lp789
F14.0
aF0.639106923193094
aa(lp790
F15.0
aF0.9357700311182966
aa(lp791
F14.0
aF0.4731684877588316
aa(lp792
F15.0
aF0.8438675577927695
aa(lp793
F13.0
aF0.9032152625492234
aa(lp794
F18.0
aF0.5102446451845004
aa(lp795
F14.0
aF0.05768779510651874
aa(lp796
F12.0
aF0.14435391823535013
aa(lp797
F12.0
aF0.1854429371334352
aa(lp798
F18.0
aF0.31830548862150027
aa(lp799
F18.0
aF0.43458331998968736
aa(lp800
F18.0
aF0.6610629148383177
aa(lp801
F18.0
aF0.10250388899981594
aa(lp802
F18.0
aF0.20180991024512374
aa(lp803
F18.0
aF0.06422963046934062
aa(lp804
F18.0
aF0.5074689219554546
aa(lp805
F18.0
aF0.47156226461263007
aa(lp806
F18.0
aF0.6041712060253036
aa(lp807
F14.0
aF0.1765862001043742
aa(lp808
F14.0
aF0.7948301493869951
aa(lp809
F18.0
aF0.1280248650622225
aa(lp810
F18.0
aF0.6771719662230715
aa(lp811
F15.0
aF0.041429107269039686
aa(lp812
F18.0
aF0.07390678388890613
aa(lp813
F18.0
aF0.22406253338871798
aa(lp814
F18.0
aF0.9922194088364624
aa(lp815
F14.0
aF0.25214036224423103
aa(lp816
F18.0
aF0.05495643349268308
aa(lp817
F18.0
aF0.22475117580153914
aa(lp818
F12.0
aF0.3526430077320951
aa(lp819
F18.0
aF0.6727582718230135
aa(lp820
F14.0
aF0.5251526551341831
aa(lp821
F18.0
aF0.4673292652027911
aa(lp822
F16.0
aF0.15807344161145728
aa(lp823
F12.0
aF0.0876273992720758
aa(lp824
F18.0
aF0.5459686093513378
aa(lp825
F18.0
aF0.45990083572167395
aa(lp826
F16.0
aF0.1413282289985259
aa(lp827
F18.0
aF0.9100772937879172
aa(lp828
F12.0
aF0.10670145697995544
aa(lp829
F29.0
aF0.9144517462462503
aa(lp830
F18.0
aF0.5292994901609835
aa(lp831
F14.0
aF0.6456144871054007
aa(lp832
F15.0
aF0.2566914480916798
aa(lp833
F29.0
aF0.9177020300310452
aa(lp834
F18.0
aF0.38212711550395717
aa(lp835
F18.0
aF0.7306277321979265
aa(lp836
F18.0
aF0.5476005346476877
aa(lp837
F13.0
aF0.9158112291370031
aa(lp838
F18.0
aF0.5773326095895949
aa(lp839
F18.0
aF0.5718819295924011
aa(lp840
F18.0
aF0.9300561012138909
aa(lp841
F12.0
aF0.14809127018360832
aa(lp842
F12.0
aF0.2475425515852439
aa(lp843
F18.0
aF0.6158317595395223
aa(lp844
F18.0
aF0.21390306041158433
aa(lp845
F12.0
aF0.2044978537036762
aa(lp846
F18.0
aF0.2959896183315252
aa(lp847
F18.0
aF0.26643925975731997
aa(lp848
F18.0
aF0.9875253089928315
aa(lp849
F18.0
aF0.5434777066890939
aa(lp850
F18.0
aF0.2877002082768638
aa(lp851
F18.0
aF0.8588667077154952
aa(lp852
F14.0
aF0.28642734701736916
aa(lp853
F18.0
aF0.038843175445098
aa(lp854
F14.0
aF0.6700442100167736
aa(lp855
F18.0
aF0.8710191585094339
aa(lp856
F15.0
aF0.5037411494178301
aa(lp857
F14.0
aF0.31728162960464107
aa(lp858
F18.0
aF0.41217262480481026
aa(lp859
F16.0
aF0.4485617616961687
aa(lp860
F18.0
aF0.9442327861727323
aa(lp861
F16.0
aF0.9327297507201844
aa(lp862
F18.0
aF0.10619408510068525
aa(lp863
F18.0
aF0.24820557947062888
aa(lp864
F15.0
aF0.12585245404980652
aa(lp865
F14.0
aF0.057490830099540285
aa(lp866
F18.0
aF0.8183616885694153
aa(lp867
F14.0
aF0.5940933335863541
aa(lp868
F12.0
aF0.1285629861658067
aa(lp869
F16.0
aF0.3819958331475439
aa(lp870
F12.0
aF0.08725859635196606
aa(lp871
F14.0
aF0.6154671598234982
aa(lp872
F18.0
aF0.38171487389798964
aa(lp873
F18.0
aF0.8386599208313664
aa(lp874
F18.0
aF0.9938447805773064
aa(lp875
F18.0
aF0.3856675083531774
aa(lp876
F16.0
aF0.42826351273091595
aa(lp877
F12.0
aF0.3334369689939774
aa(lp878
F17.0
aF0.6112668617653133
aa(lp879
F16.0
aF0.2809241221127221
aa(lp880
F13.0
aF0.9810802190202691
aa(lp881
F18.0
aF0.6051301303437878
aa(lp882
F14.0
aF0.9787312039932955
aa(lp883
F18.0
aF0.5607193692421364
aa(lp884
F18.0
aF0.304851138245406
aa(lp885
F13.0
aF0.9728687512590014
aa(lp886
F18.0
aF0.14274561539165614
aa(lp887
F14.0
aF0.3764085082499215
aa(lp888
F18.0
aF0.6615056541220808
aa(lp889
F18.0
aF0.8340738906245925
aa(lp890
F12.0
aF0.3478759191081346
aa(lp891
F16.0
aF0.6913220276683266
aa(lp892
F12.0
aF0.2483072489639894
aa(lp893
F18.0
aF0.9756199465966349
aa(lp894
F18.0
aF0.39890534898716623
aa(lp895
F18.0
aF0.7215033907496989
aa(lp896
F18.0
aF0.0866076801804301
aa(lp897
F18.0
aF0.4367341434969244
aa(lp898
F16.0
aF0.20631693351828412
aa(lp899
F18.0
aF0.784785816790886
aa(lp900
F18.0
aF0.10449316663147351
aa(lp901
F13.0
aF0.9977685197780726
aa(lp902
F16.0
aF0.5354013348214667
aa(lp903
F12.0
aF0.16037052989898945
aa(lp904
F14.0
aF0.7831755869508216
aa(lp905
F18.0
aF0.07740297162522089
aa(lp906
F18.0
aF0.694127612321439
aa(lp907
F18.0
aF0.5915436403476402
aa(lp908
F16.0
aF0.013896975487328189
aa(lp909
F12.0
aF0.24277904969178213
aa(lp910
F14.0
aF0.9132803085754087
aa(lp911
F16.0
aF0.8456988040840173
aa(lp912
F18.0
aF0.7359314870570587
aa(lp913
F14.0
aF0.37792116048368973
aa(lp914
F12.0
aF0.20737950125641466
aa(lp915
F18.0
aF0.2434236002559251
aa(lp916
F14.0
aF0.5427961386985304
aa(lp917
F16.0
aF0.5909760671389696
aa(lp918
F29.0
aF0.9083401924528733
aa(lp919
F15.0
aF0.5796969281231341
aa(lp920
F18.0
aF0.6658585231781653
aa(lp921
F16.0
aF0.7145528497812409
aa(lp922
F16.0
aF0.9174178181081944
aa(lp923
F14.0
aF0.7466931602384419
aa(lp924
F15.0
aF0.35794427118837374
aa(lp925
F18.0
aF0.2765241591002723
aa(lp926
F12.0
aF0.19680315363057577
aa(lp927
F18.0
aF0.2792541917856817
aa(lp928
F18.0
aF0.405053080224076
aa(lp929
F18.0
aF0.3076246634073311
aa(lp930
F18.0
aF0.5098886340054516
aa(lp931
F18.0
aF0.34139308762323706
aa(lp932
F15.0
aF0.25352429415147654
aa(lp933
F18.0
aF0.46611316023079247
aa(lp934
F18.0
aF0.24907445983013063
aa(lp935
F12.0
aF0.12232637155687469
aa(lp936
F18.0
aF0.5358934047508407
aa(lp937
F18.0
aF0.8166236583427666
aa(lp938
F18.0
aF0.13936505464860288
aa(lp939
F18.0
aF0.11145087343975986
aa(lp940
F18.0
aF0.60131679482863
aa(lp941
F15.0
aF0.36876798779996134
aa(lp942
F14.0
aF0.5601838470548638
aa(lp943
F18.0
aF0.39284580931497115
aa(lp944
F18.0
aF0.37545397115868206
aa(lp945
F12.0
aF0.37400814955369466
aa(lp946
F15.0
aF0.21280834934247625
aa(lp947
F15.0
aF0.1979167216922902
aa(lp948
F18.0
aF0.38112663971851124
aa(lp949
F17.0
aF0.32752543489276453
aa(lp950
F18.0
aF0.7742188117388238
aa(lp951
F14.0
aF0.3809550265412256
aa(lp952
F12.0
aF0.12769373983838694
aa(lp953
F18.0
aF0.2037940961596271
aa(lp954
F12.0
aF0.31592987052176136
aa(lp955
F15.0
aF0.839704733792302
aa(lp956
F18.0
aF0.26813237825047187
aa(lp957
F18.0
aF0.9524774920126923
aa(lp958
F14.0
aF0.3087503391228829
aa(lp959
F12.0
aF0.32252748037383144
aa(lp960
F18.0
aF0.4145228410229828
aa(lp961
F18.0
aF0.08645232973742516
aa(lp962
F14.0
aF0.6261880533931311
aa(lp963
F18.0
aF0.4032055846959722
aa(lp964
F18.0
aF0.7621712454010174
aa(lp965
F14.0
aF0.998850747033597
aa(lp966
F18.0
aF0.15486233581178044
aa(lp967
F14.0
aF0.8888060680740159
aa(lp968
F15.0
aF0.4034273924424024
aa(lp969
F18.0
aF0.36086915285921267
aa(lp970
F12.0
aF0.2039067052922947
aa(lp971
F18.0
aF0.9950703755977731
aa(lp972
F14.0
aF0.5913134506128142
aa(lp973
F12.0
aF0.13521072160330405
aa(lp974
F17.0
aF0.23717807495721324
aa(lp975
F14.0
aF0.584104723109618
aa(lp976
F18.0
aF0.1738242634760174
aa(lp977
F15.0
aF0.7215733069207418
aa(lp978
F18.0
aF0.7116811428248532
aa(lp979
F18.0
aF0.19237794046545392
aa(lp980
F14.0
aF0.9482700721834488
aa(lp981
F29.0
aF0.9871728629835245
aa(lp982
F15.0
aF0.5551111478589064
aa(lp983
F18.0
aF0.10905052498059761
aa(lp984
F14.0
aF0.6047433109199182
aa(lp985
F16.0
aF0.013210674725143841
aa(lp986
F12.0
aF0.31445352658989745
aa(lp987
F15.0
aF0.6114469919002962
aa(lp988
F13.0
aF0.9068533319466869
aa(lp989
F12.0
aF0.2501044542137361
aa(lp990
F18.0
aF0.4487708173211991
aa(lp991
F18.0
aF0.30509353955364066
aa(lp992
F18.0
aF0.9978975121707333
aa(lp993
F14.0
aF0.7357417433759352
aa(lp994
F16.0
aF0.6263835126950648
aa(lp995
F14.0
aF0.8601035598667269
aa(lp996
F14.0
aF0.7626542552817901
aa(lp997
F18.0
aF0.06337240390923676
aa(lp998
F16.0
aF0.5210599066582531
aa(lp999
F14.0
aF0.5895677928545638
aa(lp1000
F14.0
aF0.22667796095642437
aa(lp1001
F18.0
aF0.09564336527833796
aa(lp1002
F18.0
aF0.5004803611250236
aa(lp1003
F15.0
aF0.8330211359044822
aa(lp1004
F18.0
aF0.13856367277213605
aa(lp1005
F18.0
aF0.7032831738660567
aa(lp1006
F18.0
aF0.6168771825778153
aa(lp1007
F16.0
aF0.6663542019639451
aa(lp1008
F18.0
aF0.7316015720802279
aa(lp1009
F16.0
aF0.23433416603263676
aa(lp1010
F18.0
aF0.5469903616460218
aa(lp1011
F14.0
aF0.498336284677522
aa(lp1012
F18.0
aF0.2547415372048287
aa(lp1013
F14.0
aF0.06288798546334355
aa(lp1014
F18.0
aF0.04054037144456392
aa(lp1015
F18.0
aF0.9996557035780999
aa(lp1016
F18.0
aF0.35730157415849956
aa(lp1017
F14.0
aF0.31742527374671164
aa(lp1018
F18.0
aF0.2573663601103371
aa(lp1019
F14.0
aF0.4399670103121676
aa(lp1020
F15.0
aF0.673624714146266
aa(lp1021
F17.0
aF0.7607772449746656
aa(lp1022
F18.0
aF0.5962791819091947
aa(lp1023
F14.0
aF0.05309177116020151
aa(lp1024
F15.0
aF0.2947255395557063
aa(lp1025
F12.0
aF0.24658339575363697
aa(lp1026
F18.0
aF0.37926268889676307
aa(lp1027
F16.0
aF0.10017603077495396
aa(lp1028
F12.0
aF0.11334037611024211
aa(lp1029
F16.0
aF0.9062918972647666
aa(lp1030
F18.0
aF0.8170861031238033
aa(lp1031
F18.0
aF0.7938657292339869
aa(lp1032
F14.0
aF0.9369641529243243
aa(lp1033
F18.0
aF0.3850968370537946
aa(lp1034
F18.0
aF0.42538229603086763
aa(lp1035
F18.0
aF0.39846729778682355
aa(lp1036
F18.0
aF0.8832094745522961
aa(lp1037
F18.0
aF0.9143384727017635
aa(lp1038
F18.0
aF0.8001627179590998
aa(lp1039
F18.0
aF0.2297756386101019
aa(lp1040
F18.0
aF0.24544663565583688
aa(lp1041
F18.0
aF0.6865391651337805
aa(lp1042
F14.0
aF0.6453622248956054
aa(lp1043
F18.0
aF0.17086819312667806
aa(lp1044
F18.0
aF0.8140517458250068
aa(lp1045
F29.0
aF0.9165265493492079
aa(lp1046
F14.0
aF0.6662922650262431
aa(lp1047
F18.0
aF0.19403470853934585
aa(lp1048
F16.0
aF0.8278268669661962
aa(lp1049
F18.0
aF0.9691804469673978
aa(lp1050
F18.0
aF0.19911298740061878
aa(lp1051
F18.0
aF0.6228986984979489
aa(lp1052
F18.0
aF0.715278600570321
aa(lp1053
F29.0
aF0.9948933646209042
aa(lp1054
F18.0
aF0.12359802180676221
aa(lp1055
F18.0
aF0.7762458111819117
aa(lp1056
F18.0
aF0.7889989263062366
aa(lp1057
F18.0
aF0.9429601221544377
aa(lp1058
F18.0
aF0.567741078623808
aa(lp1059
F16.0
aF0.45913120369055055
aa(lp1060
F18.0
aF0.4345992338094082
aa(lp1061
F18.0
aF0.1363375807801607
aa(lp1062
F18.0
aF0.14685740870700587
aa(lp1063
F16.0
aF0.3627205461349889
aa(lp1064
F16.0
aF0.8203732135481101
aa(lp1065
F14.0
aF0.5920749320628614
aa(lp1066
F18.0
aF0.6791788374938501
aa(lp1067
F18.0
aF0.22408977526557863
aa(lp1068
F16.0
aF0.24520418066931646
aa(lp1069
F18.0
aF0.4786603977210579
aa(lp1070
F18.0
aF0.7856640052079588
aa(lp1071
F12.0
aF0.30801395384921004
aa(lp1072
F16.0
aF0.2341805102534509
aa(lp1073
F18.0
aF0.8403263643971675
aa(lp1074
F18.0
aF0.9797873405635628
aa(lp1075
F17.0
aF0.06646144639262787
aa(lp1076
F14.0
aF0.0889484733921227
aa(lp1077
F16.0
aF0.594208565432934
aa(lp1078
F13.0
aF0.8929789371508245
aa(lp1079
F14.0
aF0.015107163981417801
aa(lp1080
F14.0
aF0.9611680910445576
aa(lp1081
F12.0
aF0.38517227081739325
aa(lp1082
F15.0
aF0.4013654324605973
aa(lp1083
F14.0
aF0.7768845543763763
aa(lp1084
F18.0
aF0.4988336974431169
aa(lp1085
F14.0
aF0.9147240646587599
aa(lp1086
F14.0
aF0.7196585890180417
aa(lp1087
F18.0
aF0.7292640356946396
aa(lp1088
F18.0
aF0.978777070696565
aa(lp1089
F12.0
aF0.1747397791253213
aa(lp1090
F16.0
aF0.5709451798492282
aa(lp1091
F18.0
aF0.7574814345581518
aa(lp1092
F14.0
aF0.8338559587626978
aa(lp1093
F18.0
aF0.7669859272657241
aa(lp1094
F18.0
aF0.8419353018211857
aa(lp1095
F15.0
aF0.8668130618986186
aa(lp1096
F18.0
aF0.3579206457774504
aa(lp1097
F16.0
aF0.1699827832545687
aa(lp1098
F18.0
aF0.7802330518417893
aa(lp1099
F18.0
aF0.2845292511947824
aa(lp1100
F14.0
aF0.6479959212242558
aa(lp1101
F18.0
aF0.5213772232275711
aa(lp1102
F18.0
aF0.8614975859640038
aa(lp1103
F15.0
aF0.6572162957299756
aa(lp1104
F18.0
aF0.3868963845455428
aa(lp1105
F18.0
aF0.7188369639613384
aa(lp1106
F18.0
aF0.32060036877848264
aa(lp1107
F15.0
aF0.8486426320321042
aa(lp1108
F15.0
aF0.0740773034979281
aa(lp1109
F12.0
aF0.3971969262834151
aa(lp1110
F14.0
aF0.8729521235544048
aa(lp1111
F29.0
aF0.9719925528472679
aa(lp1112
F14.0
aF0.019994818350389514
aa(lp1113
F18.0
aF0.9439577875170744
aa(lp1114
F18.0
aF0.7568965285784018
aa(lp1115
F18.0
aF0.6513148527642346
aa(lp1116
F18.0
aF0.9917695809052448
aa(lp1117
F18.0
aF0.9797740371283664
aa(lp1118
F18.0
aF0.28446293777118625
aa(lp1119
F14.0
aF0.16957163434123118
aa(lp1120
F18.0
aF0.336707933738589
aa(lp1121
F12.0
aF0.09960333759103816
aa(lp1122
F12.0
aF0.2456063750057275
aa(lp1123
F18.0
aF0.2639108284168438
aa(lp1124
F18.0
aF0.7843128999219701
aa(lp1125
F18.0
aF0.5317612141217128
aa(lp1126
F14.0
aF0.25843085096655777
aa(lp1127
F18.0
aF0.0710493313151797
aa(lp1128
F15.0
aF0.5649760110264851
aa(lp1129
F14.0
aF0.9220796192773593
aa(lp1130
F18.0
aF0.47749781031368327
aa(lp1131
F14.0
aF0.5239839972269348
aa(lp1132
F13.0
aF0.9550704401053627
aa(lp1133
F15.0
aF0.0906966444602484
aa(lp1134
F18.0
aF0.9120463626356032
aa(lp1135
F18.0
aF0.13039475115369553
aa(lp1136
F14.0
aF0.6892445358690987
aa(lp1137
F15.0
aF0.5944976674712592
aa(lp1138
F18.0
aF0.20410298215854691
aa(lp1139
F16.0
aF0.6331984134994365
aa(lp1140
F18.0
aF0.3167286945354191
aa(lp1141
F15.0
aF0.32468627533156014
aa(lp1142
F18.0
aF0.4903706379935192
aa(lp1143
F12.0
aF0.27718622970812423
aa(lp1144
F15.0
aF0.07935840907663169
aa(lp1145
F18.0
aF0.3275431537979115
aa(lp1146
F12.0
aF0.10591017182360261
aa(lp1147
F14.0
aF0.4175353261222377
aa(lp1148
F12.0
aF0.2995663541139847
aa(lp1149
F18.0
aF0.228970234154152
aa(lp1150
F14.0
aF0.9904927770537678
aa(lp1151
F14.0
aF0.6531760724034323
aa(lp1152
F18.0
aF0.7924840505234889
aa(lp1153
F14.0
aF0.8365732626510255
aa(lp1154
F18.0
aF0.06216671212263305
aa(lp1155
F14.0
aF0.7781135891583446
aa(lp1156
F18.0
aF0.045365241556217094
aa(lp1157
F14.0
aF0.8091811076905578
aa(lp1158
F18.0
aF0.9609502554115271
aa(lp1159
F18.0
aF0.96768270608621
aa(lp1160
F18.0
aF0.14677641041228012
aa(lp1161
F17.0
aF0.39146082211740524
aa(lp1162
F18.0
aF0.34780318523416215
aa(lp1163
F18.0
aF0.5768158543097532
aa(lp1164
F18.0
aF0.7149654940983952
aa(lp1165
F18.0
aF0.331468697712734
aa(lp1166
F16.0
aF0.9186786123845322
aa(lp1167
F18.0
aF0.5904089865813166
aa(lp1168
F18.0
aF0.5265052428323139
aa(lp1169
F15.0
aF0.0005604484757118625
aa(lp1170
F18.0
aF0.6990331749684654
aa(lp1171
F15.0
aF0.556187139431391
aa(lp1172
F14.0
aF0.3872936532821105
aa(lp1173
F18.0
aF0.20336738128160378
aa(lp1174
F18.0
aF0.580606047006608
aa(lp1175
F18.0
aF0.8447483374213769
aa(lp1176
F17.0
aF0.6571605148082942
aa(lp1177
F18.0
aF0.6264443545929671
aa(lp1178
F14.0
aF0.41444798114343206
aa(lp1179
F12.0
aF0.3467305752965591
aa(lp1180
F16.0
aF0.1833635158102428
aa(lp1181
F18.0
aF0.5850271655785855
aa(lp1182
F18.0
aF0.4059894809327217
aa(lp1183
F18.0
aF0.3667208914120666
aa(lp1184
F18.0
aF0.3957128549380503
aa(lp1185
F16.0
aF0.6338963471548408
aa(lp1186
F14.0
aF0.13413334006893796
aa(lp1187
F18.0
aF0.7415609759617461
aa(lp1188
F18.0
aF0.6640656074472675
aa(lp1189
F18.0
aF0.2579079372955236
aa(lp1190
F29.0
aF0.9798730879086379
aa(lp1191
F16.0
aF0.9560138022367001
aa(lp1192
F17.0
aF0.03320148149556644
aa(lp1193
F18.0
aF0.7754545412825644
aa(lp1194
F18.0
aF0.12609910596779797
aa(lp1195
F29.0
aF0.8851015578737765
aa(lp1196
F18.0
aF0.5917914072225121
aa(lp1197
F18.0
aF0.06719330525522513
aa(lp1198
F16.0
aF0.17426344902130694
aa(lp1199
F16.0
aF0.9495288758094145
aa(lp1200
F15.0
aF0.7366070542153691
aa(lp1201
F16.0
aF0.13874007574641906
aa(lp1202
F14.0
aF0.7799441702977089
aa(lp1203
F14.0
aF0.4712057844128335
aa(lp1204
F18.0
aF0.4157815753355951
aa(lp1205
F15.0
aF0.6762415725447615
aa(lp1206
F18.0
aF0.4646275142899153
aa(lp1207
F18.0
aF0.7670078566718832
aa(lp1208
F12.0
aF0.2749794470294618
aa(lp1209
F18.0
aF0.6291901700583742
aa(lp1210
F17.0
aF0.22809589279625825
aa(lp1211
F18.0
aF0.6666188678597338
aa(lp1212
F12.0
aF0.09472043121195306
aa(lp1213
F18.0
aF0.4044010865616688
aa(lp1214
F18.0
aF0.07018055782759697
aa(lp1215
F14.0
aF0.4577826635361134
aa(lp1216
F12.0
aF0.29986070234524503
aa(lp1217
F18.0
aF0.38592903126032607
aa(lp1218
F18.0
aF0.6316356698366361
aa(lp1219
F18.0
aF0.31335904681191373
aa(lp1220
F18.0
aF0.49258201629085613
aa(lp1221
F14.0
aF0.6822278966829507
aa(lp1222
F29.0
aF0.9158770311475323
aa(lp1223
F18.0
aF0.1203086952609455
aa(lp1224
F14.0
aF0.9936144856569703
aa(lp1225
F12.0
aF0.1294532483432423
aa(lp1226
F18.0
aF0.6408931662666072
aa(lp1227
F12.0
aF0.17413685424805472
aa(lp1228
F18.0
aF0.06667942897826389
aa(lp1229
F18.0
aF0.3130832887012837
aa(lp1230
F18.0
aF0.5610802597022846
aa(lp1231
F17.0
aF0.11289053209142229
aa(lp1232
F16.0
aF0.9544107499806949
aa(lp1233
F18.0
aF0.6887915629448079
aa(lp1234
F18.0
aF0.8766488219768186
aa(lp1235
F18.0
aF0.19632176350623687
aa(lp1236
F18.0
aF0.24669437518639115
aa(lp1237
F18.0
aF0.06258715179340144
aa(lp1238
F18.0
aF0.82596601468518
aa(lp1239
F18.0
aF0.6576982002242059
aa(lp1240
F12.0
aF0.08116296221901671
aa(lp1241
F14.0
aF0.5912836305976791
aa(lp1242
F18.0
aF0.7851525920069956
aa(lp1243
F12.0
aF0.09257973103619385
aa(lp1244
F14.0
aF0.8887816930138824
aa(lp1245
F18.0
aF0.7315942834468007
aa(lp1246
F18.0
aF0.6620094687976714
aa(lp1247
F18.0
aF0.8493276954830025
aa(lp1248
F18.0
aF0.8326686456883962
aa(lp1249
F14.0
aF0.8084634039080716
aa(lp1250
F16.0
aF0.5688547246997695
aa(lp1251
F17.0
aF0.47230029619581815
aa(lp1252
F18.0
aF0.5924918141253704
aa(lp1253
F18.0
aF0.2530268058409928
aa(lp1254
F16.0
aF0.3160177868887233
aa(lp1255
F18.0
aF0.22148092848251003
aa(lp1256
F18.0
aF0.3029072310647431
aa(lp1257
F16.0
aF0.7738983439699408
aa(lp1258
F18.0
aF0.967258874709836
aa(lp1259
F18.0
aF0.0009647823738940702
aa(lp1260
F18.0
aF0.5415566055468001
aa(lp1261
F18.0
aF0.7665191667528647
aa(lp1262
F18.0
aF0.6805813062188043
aa(lp1263
F18.0
aF0.4552681562626758
aa(lp1264
F16.0
aF0.38844068827212574
aa(lp1265
F18.0
aF0.7705981156023681
aa(lp1266
F16.0
aF0.2752411448319101
aa(lp1267
F12.0
aF0.31006916625612957
aa(lp1268
F18.0
aF0.7388070602012966
aa(lp1269
F18.0
aF0.23965751128303517
aa(lp1270
F18.0
aF0.1493623829430872
aa(lp1271
F15.0
aF0.06186017400009328
aa(lp1272
F16.0
aF0.9827311003635204
aa(lp1273
F18.0
aF0.1895409827660165
aa(lp1274
F15.0
aF0.6058728410945402
aa(lp1275
F18.0
aF0.9496617375867196
aa(lp1276
F18.0
aF0.6337518221162777
aa(lp1277
F14.0
aF0.5898853892239747
aa(lp1278
F18.0
aF0.5376880595174921
aa(lp1279
F18.0
aF0.28659681598514236
aa(lp1280
F18.0
aF0.06260003768006561
aa(lp1281
F18.0
aF0.6846898408561001
aa(lp1282
F18.0
aF0.0509252259977208
aa(lp1283
F14.0
aF0.8689008245255145
aa(lp1284
F12.0
aF0.07654464964349955
aa(lp1285
F18.0
aF0.8041808656324363
aa(lp1286
F18.0
aF0.21385121994617604
aa(lp1287
F18.0
aF0.6302985652427185
aa(lp1288
F18.0
aF0.28890250396371553
aa(lp1289
F18.0
aF0.8360461709655714
aa(lp1290
F18.0
aF0.9462763549480262
aa(lp1291
F18.0
aF0.7003615307645648
aa(lp1292
F16.0
aF0.2202126448140037
aa(lp1293
F18.0
aF0.8546249846695566
aa(lp1294
F18.0
aF0.033523095861243565
aa(lp1295
F17.0
aF0.1940920449494176
aa(lp1296
F18.0
aF0.4540755096505434
aa(lp1297
F17.0
aF0.8338258624678127
aa(lp1298
F15.0
aF0.5387765081528432
aa(lp1299
F18.0
aF0.46425928712228487
aa(lp1300
F18.0
aF0.4618510668636918
aa(lp1301
F15.0
aF0.6638710765966662
aa(lp1302
F18.0
aF0.5435628798414028
aa(lp1303
F15.0
aF0.5081820720687752
aa(lp1304
F12.0
aF0.19922255336280392
aa(lp1305
F18.0
aF0.20640951480714512
aa(lp1306
F14.0
aF0.9985044131417836
aa(lp1307
F14.0
aF0.7845530225890784
aa(lp1308
F18.0
aF0.07846698247826141
aa(lp1309
F16.0
aF0.6441392434481795
aa(lp1310
F18.0
aF0.4131563762597679
aa(lp1311
F18.0
aF0.6964188040633106
aa(lp1312
F18.0
aF0.8865131127806651
aa(lp1313
F18.0
aF0.005141675805318512
aa(lp1314
F18.0
aF0.4370793339334993
aa(lp1315
F18.0
aF0.18580342111474632
aa(lp1316
F18.0
aF0.9909830103885523
aa(lp1317
F18.0
aF0.7664476119495783
aa(lp1318
F29.0
aF0.878737989096451
aa(lp1319
F14.0
aF0.037589888419849456
aa(lp1320
F18.0
aF0.5475364954564164
aa(lp1321
F18.0
aF0.22427682529004486
aa(lp1322
F18.0
aF0.6954803949158875
aa(lp1323
F18.0
aF0.19396121984083767
aa(lp1324
F14.0
aF0.7219539362013833
aa(lp1325
F18.0
aF0.39522388583379997
aa(lp1326
F12.0
aF0.08285220454736891
aa(lp1327
F18.0
aF0.697299475643906
aa(lp1328
F16.0
aF0.9557921882989742
aa(lp1329
F14.0
aF0.41743049039526275
aa(lp1330
F18.0
aF0.9853856187878874
aa(lp1331
F18.0
aF0.7664294665312149
aa(lp1332
F29.0
aF0.880726173793639
aa(lp1333
F18.0
aF0.08823411776333577
aa(lp1334
F18.0
aF0.7740615283945101
aa(lp1335
F18.0
aF0.5154460427448003
aa(lp1336
F18.0
aF0.7115978460253746
aa(lp1337
F15.0
aF0.21516501561804371
aa(lp1338
F18.0
aF0.5978574568749283
aa(lp1339
F18.0
aF0.1376406709667489
aa(lp1340
F18.0
aF0.40949933619064965
aa(lp1341
F18.0
aF0.4599664344164315
aa(lp1342
F18.0
aF0.9422207020319044
aa(lp1343
F18.0
aF0.5993088957460805
aa(lp1344
F17.0
aF0.7886929324065419
aa(lp1345
F14.0
aF0.8595588649071133
aa(lp1346
F29.0
aF0.9613376165365181
aa(lp1347
F14.0
aF0.6822758017172766
aa(lp1348
F18.0
aF0.66001646712693
aa(lp1349
F18.0
aF0.735045387083994
aa(lp1350
F16.0
aF0.7785395036456009
aa(lp1351
F14.0
aF0.07988282717478727
aa(lp1352
F17.0
aF0.9250882508997528
aa(lp1353
F18.0
aF0.6955736376565241
aa(lp1354
F18.0
aF0.9699516204996863
aa(lp1355
F15.0
aF0.3457989902170637
aa(lp1356
F18.0
aF0.23524354355660834
aa(lp1357
F18.0
aF0.0772765993746434
aa(lp1358
F18.0
aF0.6587711328161119
aa(lp1359
F14.0
aF0.5070332878542392
aa(lp1360
F18.0
aF0.47771850971745855
aa(lp1361
F18.0
aF0.354992934673631
aa(lp1362
F16.0
aF0.12803382388589332
aa(lp1363
F18.0
aF0.09623732236271705
aa(lp1364
F18.0
aF0.7164720700386802
aa(lp1365
F18.0
aF0.7309768019857378
aa(lp1366
F18.0
aF0.1433928535937313
aa(lp1367
F14.0
aF0.3174040288892663
aa(lp1368
F18.0
aF0.3367744093794244
aa(lp1369
F12.0
aF0.1849612059620017
aa(lp1370
F18.0
aF0.8670274431961037
aa(lp1371
F16.0
aF0.7356341011182416
aa(lp1372
F15.0
aF0.19996517341196274
aa(lp1373
F18.0
aF0.7463287722319256
aa(lp1374
F18.0
aF0.07690894109203947
aa(lp1375
F18.0
aF0.013038977971315445
aa(lp1376
F18.0
aF0.42752811083892955
aa(lp1377
F12.0
aF0.13147822375113372
aa(lp1378
F16.0
aF0.09734383763839423
aa(lp1379
F16.0
aF0.6449268613806792
aa(lp1380
F16.0
aF0.298097389252156
aa(lp1381
F18.0
aF0.05696592456401576
aa(lp1382
F18.0
aF0.1493559322838434
aa(lp1383
F18.0
aF0.83697980681452
aa(lp1384
F12.0
aF0.12364388532742185
aa(lp1385
F18.0
aF0.08012773939087052
aa(lp1386
F18.0
aF0.1011561102919058
aa(lp1387
F18.0
aF0.8089991113591282
aa(lp1388
F14.0
aF0.275940677375199
aa(lp1389
F16.0
aF0.9365230716638361
aa(lp1390
F18.0
aF0.276563156521944
aa(lp1391
F18.0
aF0.5815396195589246
aa(lp1392
F18.0
aF0.8671939151713673
aa(lp1393
F18.0
aF0.4615180709157669
aa(lp1394
F14.0
aF0.054044524765757655
aa(lp1395
F18.0
aF0.18151532161984166
aa(lp1396
F18.0
aF0.5388727937889637
aa(lp1397
F16.0
aF0.5613053896906118
aa(lp1398
F18.0
aF0.6470414542523294
aa(lp1399
F18.0
aF0.06837981962679347
aa(lp1400
F18.0
aF0.5899117698211855
aa(lp1401
F14.0
aF0.8080202261585463
aa(lp1402
F18.0
aF0.09072571752552111
aa(lp1403
F18.0
aF0.25094558979782405
aa(lp1404
F16.0
aF0.7079176508044337
aa(lp1405
F14.0
aF0.44448576192093686
aa(lp1406
F16.0
aF0.038277138788888686
aa(lp1407
F18.0
aF0.7239448294473846
aa(lp1408
F14.0
aF0.5959678095021078
aa(lp1409
F18.0
aF0.26321017533716373
aa(lp1410
F16.0
aF0.5714069822064334
aa(lp1411
F18.0
aF0.5826734696672556
aa(lp1412
F14.0
aF0.14627692708932605
aa(lp1413
F18.0
aF0.26553385153874315
aa(lp1414
F17.0
aF0.6883426715306115
aa(lp1415
F18.0
aF0.15275829474125383
aa(lp1416
F18.0
aF0.10751120286733566
aa(lp1417
F12.0
aF0.09673886726398032
aa(lp1418
F18.0
aF0.2323933700433475
aa(lp1419
F18.0
aF0.06278649433783214
aa(lp1420
F16.0
aF0.16328080565905673
aa(lp1421
F18.0
aF0.6202369204026251
aa(lp1422
F15.0
aF0.7221435866673008
aa(lp1423
F17.0
aF0.9532100879346543
aa(lp1424
F18.0
aF0.26464289629544996
aa(lp1425
F18.0
aF0.13688142382786997
aa(lp1426
F14.0
aF0.8820624923772182
aa(lp1427
F16.0
aF0.4727909613420629
aa(lp1428
F18.0
aF0.6269656646671202
aa(lp1429
F14.0
aF0.7864225405532193
aa(lp1430
F18.0
aF0.562812721551516
aa(lp1431
F18.0
aF0.5809483480826718
aa(lp1432
F18.0
aF0.48714872638964407
aa(lp1433
F15.0
aF0.3166287629406388
aa(lp1434
F17.0
aF0.9137917076637528
aa(lp1435
F14.0
aF0.8429106955018901
aa(lp1436
F15.0
aF0.14943362459702803
aa(lp1437
F15.0
aF0.07210652781328453
aa(lp1438
F18.0
aF0.8666465323248557
aa(lp1439
F16.0
aF0.21091224492328636
aa(lp1440
F15.0
aF0.12308105496397202
aa(lp1441
F14.0
aF0.8544359833016947
aa(lp1442
F18.0
aF0.7415942165285048
aa(lp1443
F16.0
aF0.6070171050247298
aa(lp1444
F14.0
aF0.5648852992506105
aa(lp1445
F18.0
aF0.17637199416909166
aa(lp1446
F16.0
aF0.9141778608715877
aa(lp1447
F18.0
aF0.23945282132397627
aa(lp1448
F16.0
aF0.2918829791210413
aa(lp1449
F18.0
aF0.358227247081792
aa(lp1450
F18.0
aF0.04692822614790732
aa(lp1451
F17.0
aF0.7546506620590896
aa(lp1452
F18.0
aF0.5893074279564311
aa(lp1453
F18.0
aF0.03986474548732897
aa(lp1454
F18.0
aF0.0927093169784115
aa(lp1455
F15.0
aF0.766702334042598
aa(lp1456
F16.0
aF0.8212205656826359
aa(lp1457
F18.0
aF0.45953693516660904
aa(lp1458
F18.0
aF0.06302319696128457
aa(lp1459
F14.0
aF0.6150886960757173
aa(lp1460
F18.0
aF0.1887628175190523
aa(lp1461
F18.0
aF0.4563307266726738
aa(lp1462
F16.0
aF0.492084983734873
aa(lp1463
F18.0
aF0.9365387413171301
aa(lp1464
F18.0
aF0.43917156950195524
aa(lp1465
F18.0
aF0.8766215207789819
aa(lp1466
F16.0
aF0.35977100335916384
aa(lp1467
F14.0
aF0.14319917670063212
aa(lp1468
F14.0
aF0.8184168119638308
aa(lp1469
F14.0
aF0.034434526745827546
aa(lp1470
F18.0
aF0.8610788275773511
aa(lp1471
F15.0
aF0.31279291676313364
aa(lp1472
F18.0
aF0.24559799098277238
aa(lp1473
F15.0
aF0.789956419254463
aa(lp1474
F12.0
aF0.169612705413469
aa(lp1475
F14.0
aF0.875550167561489
aa(lp1476
F14.0
aF0.18825308841437902
aa(lp1477
F18.0
aF0.0311711945402328
aa(lp1478
F18.0
aF0.5522824322082889
aa(lp1479
F18.0
aF0.27486030985943766
aa(lp1480
F16.0
aF0.4182784362118812
aa(lp1481
F18.0
aF0.7653194664372044
aa(lp1482
F12.0
aF0.11990766796969772
aa(lp1483
F17.0
aF0.8397006794797203
aa(lp1484
F18.0
aF0.24331818902533564
aa(lp1485
F18.0
aF0.5515301063731217
aa(lp1486
F18.0
aF0.03617281516334162
aa(lp1487
F16.0
aF0.23617094483126205
aa(lp1488
F17.0
aF0.539091869948831
aa(lp1489
F18.0
aF0.7611982706424465
aa(lp1490
F18.0
aF0.7706119023413585
aa(lp1491
F18.0
aF0.30240553776795476
aa(lp1492
F18.0
aF0.03820024999310417
aa(lp1493
F18.0
aF0.8906339082896094
aa(lp1494
F14.0
aF0.12627062832112734
aa(lp1495
F18.0
aF0.36902815082109486
aa(lp1496
F18.0
aF0.49110756124697535
aa(lp1497
F15.0
aF0.01773696241409412
aa(lp1498
F12.0
aF0.09863512559409753
aa(lp1499
F18.0
aF0.04776724336527897
aa(lp1500
F18.0
aF0.7622266281238577
aa(lp1501
F18.0
aF0.0765944429834831
aa(lp1502
F15.0
aF0.41962513995890577
aa(lp1503
F18.0
aF0.7972836805535292
aa(lp1504
F16.0
aF0.12652335185058597
aa(lp1505
F18.0
aF0.7123106794696644
aa(lp1506
F18.0
aF0.727491889942983
aa(lp1507
F14.0
aF0.9582007899727769
aa(lp1508
F16.0
aF0.34625324472280467
aa(lp1509
F17.0
aF0.9565127036124976
aa(lp1510
F18.0
aF0.682026141420259
aa(lp1511
F16.0
aF0.22809855585911298
aa(lp1512
F18.0
aF0.5246591842947098
aa(lp1513
F18.0
aF0.5379862116106409
aa(lp1514
F16.0
aF0.6339314133892863
aa(lp1515
F18.0
aF0.19735026515749962
aa(lp1516
F18.0
aF0.34782334835039674
aa(lp1517
F18.0
aF0.7705882777885983
aa(lp1518
F18.0
aF0.8331650280838221
aa(lp1519
F18.0
aF0.45180960020547906
aa(lp1520
F18.0
aF0.7828548275636948
aa(lp1521
F14.0
aF0.16512502401645485
aa(lp1522
F18.0
aF0.4227125341900037
aa(lp1523
F18.0
aF0.6533848806305914
aa(lp1524
F16.0
aF0.48807054692732715
aa(lp1525
F18.0
aF0.25597583467532903
aa(lp1526
F18.0
aF0.10581327163301489
aa(lp1527
F18.0
aF0.4913037650107768
aa(lp1528
F18.0
aF0.6813577845320375
aa(lp1529
F16.0
aF0.20782649915101475
aa(lp1530
F18.0
aF0.5648827714932282
aa(lp1531
F18.0
aF0.006182777776039955
aa(lp1532
F18.0
aF0.16882996695337435
aa(lp1533
F14.0
aF0.250295502572692
aa(lp1534
F18.0
aF0.8368102930437155
aa(lp1535
F18.0
aF0.8358548100742298
aa(lp1536
F17.0
aF0.7430013907356909
aa(lp1537
F16.0
aF0.9433686705721395
aa(lp1538
F14.0
aF0.40937345147270143
aa(lp1539
F18.0
aF0.7198686800353239
aa(lp1540
F18.0
aF0.05350599078498342
aa(lp1541
F15.0
aF0.6461810353522323
aa(lp1542
F14.0
aF0.01824094278361696
aa(lp1543
F18.0
aF0.1982320172273123
aa(lp1544
F18.0
aF0.00471791829245232
aa(lp1545
F18.0
aF0.6781939793417318
aa(lp1546
F18.0
aF0.1692805177739875
aa(lp1547
F18.0
aF0.0014727796491343273
aa(lp1548
F18.0
aF0.536967249180438
aa(lp1549
F16.0
aF0.07184956464216638
aa(lp1550
F18.0
aF0.4525496336253032
aa(lp1551
F18.0
aF0.1872043790380048
aa(lp1552
F18.0
aF0.04708311729798927
aa(lp1553
F16.0
aF0.9786825039536253
aa(lp1554
F18.0
aF0.011511137867250507
aa(lp1555
F12.0
aF0.13905817650611912
aa(lp1556
F16.0
aF0.6913061193735424
aa(lp1557
F14.0
aF0.8047208333799435
aa(lp1558
F16.0
aF0.6229712501421633
aa(lp1559
F16.0
aF0.7015638027217111
aa(lp1560
F18.0
aF0.34747809838360055
aa(lp1561
F15.0
aF0.4900371243228842
aa(lp1562
F15.0
aF0.8162254880318058
aa(lp1563
F18.0
aF0.7860470784177318
aa(lp1564
F12.0
aF0.11731902001385527
aa(lp1565
F18.0
aF0.6873218593856033
aa(lp1566
F18.0
aF0.5325938044814675
aa(lp1567
F18.0
aF0.26634131224596813
aa(lp1568
F18.0
aF0.22292875390059727
aa(lp1569
F14.0
aF0.34157602992362307
aa(lp1570
F18.0
aF0.279601264067769
aa(lp1571
F18.0
aF0.033312530248386214
aa(lp1572
F18.0
aF0.30744872513291543
aa(lp1573
F18.0
aF0.02189929885864949
aa(lp1574
F16.0
aF0.6148255403399642
aa(lp1575
F18.0
aF0.5963490815839981
aa(lp1576
F16.0
aF0.528663947618945
aa(lp1577
F16.0
aF0.4357516273499789
aa(lp1578
F12.0
aF0.12070491243238388
aa(lp1579
F18.0
aF0.6927192974985513
aa(lp1580
F16.0
aF0.779514354649346
aa(lp1581
F18.0
aF0.6730842104579321
aa(lp1582
F18.0
aF0.80407323745036
aa(lp1583
F18.0
aF0.5766846996062313
aa(lp1584
F17.0
aF0.5778963162361854
aa(lp1585
F18.0
aF0.5573149162695695
aa(lp1586
F18.0
aF0.10981598774419826
aa(lp1587
F18.0
aF0.03691573292179594
aa(lp1588
F16.0
aF0.15914166493397208
aa(lp1589
F18.0
aF0.6242727694239804
aa(lp1590
F18.0
aF0.9201758680806826
aa(lp1591
F16.0
aF0.20071534402748523
aa(lp1592
F18.0
aF0.2941344408938899
aa(lp1593
F18.0
aF0.5525407689407986
aa(lp1594
F18.0
aF0.6734616331092884
aa(lp1595
F18.0
aF0.548529913981169
aa(lp1596
F18.0
aF0.22286358834312878
aa(lp1597
F16.0
aF0.4908410050740002
aa(lp1598
F18.0
aF0.4735326201605465
aa(lp1599
F18.0
aF0.5165200674913353
aa(lp1600
F18.0
aF0.6072271883309981
aa(lp1601
F17.0
aF0.5987033014151462
aa(lp1602
F18.0
aF0.7453950291448783
aa(lp1603
F12.0
aF0.12442898291167052
aa(lp1604
F18.0
aF0.8316236539041862
aa(lp1605
F18.0
aF0.34485750923815983
aa(lp1606
F18.0
aF0.43952081202156973
aa(lp1607
F18.0
aF0.461838961984241
aa(lp1608
F18.0
aF0.7397029222414161
aa(lp1609
F18.0
aF0.41572460784292625
aa(lp1610
F18.0
aF0.6068634909005822
aa(lp1611
F16.0
aF0.7619190080332564
aa(lp1612
F15.0
aF0.1598889385188139
aa(lp1613
F18.0
aF0.22059105111286986
aa(lp1614
F18.0
aF0.5008504309570267
aa(lp1615
F18.0
aF0.48845973786212027
aa(lp1616
F18.0
aF0.2623050346907154
aa(lp1617
F17.0
aF0.7098776485422682
aa(lp1618
F18.0
aF0.6531191978268842
aa(lp1619
F12.0
aF0.16688011471700626
aa(lp1620
F18.0
aF0.5786103487946845
aa(lp1621
F14.0
aF0.8426874383346692
aa(lp1622
F16.0
aF0.8394914649947165
aa(lp1623
F18.0
aF0.7334012187018263
aa(lp1624
F18.0
aF0.31044671213417024
aa(lp1625
F16.0
aF0.3592936792308392
aa(lp1626
F18.0
aF0.8856189740829187
aa(lp1627
F18.0
aF0.8532403354114625
aa(lp1628
F14.0
aF0.9714257153719627
aa(lp1629
F18.0
aF0.04149514109761564
aa(lp1630
F18.0
aF0.7289792502810084
aa(lp1631
F18.0
aF0.8023377736144606
aa(lp1632
F14.0
aF0.9145362959451935
aa(lp1633
F18.0
aF0.2621162654041546
aa(lp1634
F18.0
aF0.795082216601346
aa(lp1635
F12.0
aF0.14322587129568312
aa(lp1636
F14.0
aF0.3982624307314065
aa(lp1637
F18.0
aF0.6416895076909591
aa(lp1638
F16.0
aF0.49793999709667736
aa(lp1639
F15.0
aF0.3584546134393276
aa(lp1640
F18.0
aF0.4043743755395438
aa(lp1641
F14.0
aF0.19034868631413632
aa(lp1642
F18.0
aF0.7224517309818802
aa(lp1643
F18.0
aF0.030908303902703077
aa(lp1644
F18.0
aF0.40338790368946775
aa(lp1645
F18.0
aF0.27053582871544635
aa(lp1646
F18.0
aF0.028264729605116442
aa(lp1647
F18.0
aF0.31984215201462574
aa(lp1648
F16.0
aF0.5299730571233623
aa(lp1649
F18.0
aF0.7727151796150784
aa(lp1650
F18.0
aF0.7596901279274088
aa(lp1651
F18.0
aF0.4611755403501749
aa(lp1652
F18.0
aF0.8166811961328655
aa(lp1653
F18.0
aF0.5949904815058809
aa(lp1654
F18.0
aF0.018078057175559277
aa(lp1655
F18.0
aF0.5079772080411991
aa(lp1656
F12.0
aF0.09923986792906171
aa(lp1657
F18.0
aF0.31189482955374853
aa(lp1658
F18.0
aF0.012995761489041238
aa(lp1659
F18.0
aF0.16100976882215884
aa(lp1660
F18.0
aF0.6625808355230349
aa(lp1661
F16.0
aF0.5356948430782292
aa(lp1662
F18.0
aF0.48609760775293187
aa(lp1663
F18.0
aF0.5070257910172372
aa(lp1664
F16.0
aF0.10114045367330146
aa(lp1665
F15.0
aF0.08896475630691789
aa(lp1666
F18.0
aF0.4104643602643999
aa(lp1667
F18.0
aF0.169190825189784
aa(lp1668
F12.0
aF0.1473372880716931
aa(lp1669
F18.0
aF0.7530858258369907
aa(lp1670
F15.0
aF0.22800756764061134
aa(lp1671
F18.0
aF0.4518651475518752
aa(lp1672
F18.0
aF0.09122029366521404
aa(lp1673
F14.0
aF0.1925220641786068
aa(lp1674
F15.0
aF0.43647286717806705
aa(lp1675
F12.0
aF0.11320573739268112
aa(lp1676
F16.0
aF0.12309181200391257
aa(lp1677
F15.0
aF0.6387512512912222
aa(lp1678
F18.0
aF0.5963782724217256
aa(lp1679
F18.0
aF0.40126794205106564
aa(lp1680
F14.0
aF0.16382240455277078
aa(lp1681
F18.0
aF0.49601623976229803
aa(lp1682
F18.0
aF0.5504782735306827
aa(lp1683
F18.0
aF0.09909290548870112
aa(lp1684
F18.0
aF0.8181589574057432
aa(lp1685
F18.0
aF0.2704444649432008
aa(lp1686
F18.0
aF0.7086693315774304
aa(lp1687
F18.0
aF0.004762697312265099
aa(lp1688
F18.0
aF0.5915335096430865
aa(lp1689
F18.0
aF0.09430641322407532
aa(lp1690
F14.0
aF0.812061880904689
aa(lp1691
F14.0
aF0.37434827658349223
aa(lp1692
F12.0
aF0.18816008683518257
aa(lp1693
F18.0
aF0.8652624345321349
aa(lp1694
F18.0
aF0.8338748724100151
aa(lp1695
F14.0
aF0.9305058481817806
aa(lp1696
F18.0
aF0.43457304124425006
aa(lp1697
F15.0
aF0.309621295682364
aa(lp1698
F14.0
aF0.016989208090045425
aa(lp1699
F18.0
aF0.0485631882702291
aa(lp1700
F16.0
aF0.4453022377321012
aa(lp1701
F14.0
aF0.28971048818169004
aa(lp1702
F18.0
aF0.49490413372130765
aa(lp1703
F15.0
aF0.09934042134098577
aa(lp1704
F16.0
aF0.26830825905722216
aa(lp1705
F18.0
aF0.6743011388092693
aa(lp1706
F18.0
aF0.33460050519966855
aa(lp1707
F14.0
aF0.9014791311953838
aa(lp1708
F14.0
aF0.3395127899525854
aa(lp1709
F18.0
aF0.2404199178131845
aa(lp1710
F18.0
aF0.4758176524076843
aa(lp1711
F18.0
aF0.024379193608705937
aa(lp1712
F18.0
aF0.3521850514716641
aa(lp1713
F18.0
aF0.48382113164121654
aa(lp1714
F18.0
aF0.44790329077728347
aa(lp1715
F12.0
aF0.10132224006032062
aa(lp1716
F14.0
aF0.8451373012798156
aa(lp1717
F18.0
aF0.7615561518446614
aa(lp1718
F16.0
aF0.5558992026001175
aa(lp1719
F15.0
aF0.10418592292720295
aa(lp1720
F16.0
aF0.0298018663812553
aa(lp1721
F18.0
aF0.765374653882086
aa(lp1722
F18.0
aF0.6405005102604884
aa(lp1723
F15.0
aF0.7144663658226644
aa(lp1724
F14.0
aF0.9903742696737103
aa(lp1725
F18.0
aF0.597311525613759
aa(lp1726
F18.0
aF0.22027131811122086
aa(lp1727
F15.0
aF0.28309741275433575
aa(lp1728
F18.0
aF0.8084495688419665
aa(lp1729
F18.0
aF0.684121332784534
aa(lp1730
F14.0
aF0.032398815050459315
aa(lp1731
F18.0
aF0.7092173312260888
aa(lp1732
F18.0
aF0.7744816450955168
aa(lp1733
F18.0
aF0.1097081612501097
aa(lp1734
F18.0
aF0.07259692629835271
aa(lp1735
F12.0
aF0.09606813445020684
aa(lp1736
F18.0
aF0.4710330555895003
aa(lp1737
F18.0
aF0.601273984857211
aa(lp1738
F16.0
aF0.737270408180713
aa(lp1739
F18.0
aF0.9052836242082403
aa(lp1740
F18.0
aF0.18163899863701802
aa(lp1741
F18.0
aF0.4458073361393138
aa(lp1742
F12.0
aF0.16243710080498752
aa(lp1743
F18.0
aF0.3143587425317499
aa(lp1744
F18.0
aF0.3013526312890769
aa(lp1745
F18.0
aF0.15730282940180879
aa(lp1746
F18.0
aF0.6890222903661201
aa(lp1747
F17.0
aF0.6377611613838658
aa(lp1748
F18.0
aF0.5295875026043538
aa(lp1749
F12.0
aF0.16745772512940277
aa(lp1750
F18.0
aF0.44598653230711427
aa(lp1751
F14.0
aF0.01920087536381088
aa(lp1752
F18.0
aF0.31337057480271446
aa(lp1753
F15.0
aF0.7156144300178477
aa(lp1754
F15.0
aF0.13645835556207728
aa(lp1755
F18.0
aF0.3983588858250363
aa(lp1756
F16.0
aF0.7366160036539986
aa(lp1757
F18.0
aF0.9614872800517865
aa(lp1758
F16.0
aF0.8228896037706949
aa(lp1759
F14.0
aF0.7943229048067456
aa(lp1760
F18.0
aF0.4322552263108706
aa(lp1761
F15.0
aF0.16505253068354597
aa(lp1762
F15.0
aF0.21465836339452934
aa(lp1763
F14.0
aF0.9652856397354267
aa(lp1764
F14.0
aF0.1451078784526149
aa(lp1765
F18.0
aF0.8658947968223336
aa(lp1766
F18.0
aF0.08424707724636436
aa(lp1767
F15.0
aF0.843835610816657
aa(lp1768
F18.0
aF0.9156901795673196
aa(lp1769
F18.0
aF0.5769322625717852
aa(lp1770
F18.0
aF0.838526006865453
aa(lp1771
F16.0
aF0.5442716637899804
aa(lp1772
F12.0
aF0.1341457712165053
aa(lp1773
F18.0
aF0.07358201817721108
aa(lp1774
F18.0
aF0.32290674187771656
aa(lp1775
F15.0
aF0.024557777380541598
aa(lp1776
F15.0
aF0.006158429406728802
aa(lp1777
F12.0
aF0.09863419566420016
aa(lp1778
F12.0
aF0.10398633475126921
aa(lp1779
F18.0
aF0.8357190349780655
aa(lp1780
F18.0
aF0.795790155803513
aa(lp1781
F16.0
aF0.6083534015568118
aa(lp1782
F18.0
aF0.6401596883378042
aa(lp1783
F18.0
aF0.4893703603108402
aa(lp1784
F18.0
aF0.8022800123506298
aa(lp1785
F18.0
aF0.8010127984339791
aa(lp1786
F18.0
aF0.6851238299819534
aa(lp1787
F16.0
aF0.8932085317757021
aa(lp1788
F18.0
aF0.26057391169604793
aa(lp1789
F18.0
aF0.2740800871580377
aa(lp1790
F16.0
aF0.9556308325736723
aa(lp1791
F17.0
aF0.7404051577068858
aa(lp1792
F16.0
aF0.9306979698165414
aa(lp1793
F18.0
aF0.7219356970744093
aa(lp1794
F18.0
aF0.7145576626983984
aa(lp1795
F18.0
aF0.37779113848828344
aa(lp1796
F15.0
aF0.8433177799904965
aa(lp1797
F18.0
aF0.1824036222755888
aa(lp1798
F12.0
aF0.2000127382011667
aa(lp1799
F18.0
aF0.0625650637271698
aa(lp1800
F17.0
aF0.149642282251139
aa(lp1801
F14.0
aF0.45273812488230114
aa(lp1802
F16.0
aF0.6684089628927654
aa(lp1803
F16.0
aF0.9744525365949954
aa(lp1804
F18.0
aF0.8704281965589468
aa(lp1805
F16.0
aF0.004137384339865276
aa(lp1806
F14.0
aF0.1524353239295266
aa(lp1807
F18.0
aF0.7788289813981569
aa(lp1808
F15.0
aF0.004539926190898069
aa(lp1809
F18.0
aF0.6372606953871052
aa(lp1810
F12.0
aF0.07305389143776587
aa(lp1811
F12.0
aF0.08466613785257117
aa(lp1812
F12.0
aF0.12820223005841952
aa(lp1813
F12.0
aF0.1757660829052113
aa(lp1814
F14.0
aF0.2922929183225796
aa(lp1815
F18.0
aF0.2193515944959907
aa(lp1816
F18.0
aF0.5551005221753899
aa(lp1817
F15.0
aF0.031196815070914118
aa(lp1818
F12.0
aF0.11157111510007638
aa(lp1819
F12.0
aF0.19703460681639276
aa(lp1820
F18.0
aF0.8948141817089171
aa(lp1821
F18.0
aF0.0057341163337615774
aa(lp1822
F16.0
aF0.26124586306721415
aa(lp1823
F14.0
aF0.22891694132296547
aa(lp1824
F12.0
aF0.08198718688319102
aa(lp1825
F15.0
aF0.8980141565684067
aa(lp1826
F16.0
aF0.5694204236530036
aa(lp1827
F18.0
aF0.323404718772865
aa(lp1828
F18.0
aF0.903247049292385
aa(lp1829
F17.0
aF0.8281504436583282
aa(lp1830
F18.0
aF0.707743291167488
aa(lp1831
F16.0
aF0.6142350568193768
aa(lp1832
F16.0
aF0.06498674890500196
aa(lp1833
F18.0
aF0.3937243570058239
aa(lp1834
F18.0
aF0.671040628029398
aa(lp1835
F18.0
aF0.7294370924029226
aa(lp1836
F18.0
aF0.3927787792793304
aa(lp1837
F18.0
aF0.026840812685345963
aa(lp1838
F18.0
aF0.5800447861379451
aa(lp1839
F18.0
aF0.07897756131451844
aa(lp1840
F18.0
aF0.383475058364622
aa(lp1841
F15.0
aF0.2904006375761365
aa(lp1842
F14.0
aF0.7900519249914093
aa(lp1843
F18.0
aF0.06925710253583788
aa(lp1844
F17.0
aF0.8560690943117638
aa(lp1845
F18.0
aF0.4484591341342209
aa(lp1846
F18.0
aF0.7307391653446171
aa(lp1847
F18.0
aF0.5946685508556017
aa(lp1848
F16.0
aF0.884315088738169
aa(lp1849
F18.0
aF0.7467819026257271
aa(lp1850
F18.0
aF0.8159660920657292
aa(lp1851
F18.0
aF0.17573467920508556
aa(lp1852
F14.0
aF0.4561218605315807
aa(lp1853
F12.0
aF0.09361141476086059
aa(lp1854
F18.0
aF0.9403364079339187
aa(lp1855
F18.0
aF0.8528974378823334
aa(lp1856
F15.0
aF0.20587265535204197
aa(lp1857
F16.0
aF0.6262500458913475
aa(lp1858
F18.0
aF0.511555605915048
aa(lp1859
F14.0
aF0.005435884054048673
aa(lp1860
F18.0
aF0.2192536918677057
aa(lp1861
F18.0
aF0.13894584193859727
aa(lp1862
F18.0
aF0.7427052886896174
aa(lp1863
F18.0
aF0.8517138865255387
aa(lp1864
F18.0
aF0.16410802642581304
aa(lp1865
F18.0
aF0.18195772197890647
aa(lp1866
F18.0
aF0.6951800261851185
aa(lp1867
F16.0
aF0.39777313014802906
aa(lp1868
F18.0
aF0.7117495845323407
aa(lp1869
F18.0
aF0.8125367885735537
aa(lp1870
F16.0
aF0.8647512338104645
aa(lp1871
F12.0
aF0.11081788265372486
aa(lp1872
F18.0
aF0.593415191211786
aa(lp1873
F18.0
aF0.5399568813400264
aa(lp1874
F16.0
aF0.3739727700113655
aa(lp1875
F14.0
aF0.8989731115715051
aa(lp1876
F12.0
aF0.09193819426027972
aa(lp1877
F18.0
aF0.4691808127093107
aa(lp1878
F17.0
aF0.9491197137520784
aa(lp1879
F18.0
aF0.5889292703840878
aa(lp1880
F18.0
aF0.4133548084835334
aa(lp1881
F18.0
aF0.013587463277774773
aa(lp1882
F18.0
aF0.7469216329767747
aa(lp1883
F18.0
aF0.22945619902234862
aa(lp1884
F14.0
aF0.8052084762599754
aa(lp1885
F14.0
aF0.9669697789439847
aa(lp1886
F12.0
aF0.13722320627215856
aa(lp1887
F15.0
aF0.7496713700664166
aa(lp1888
F16.0
aF0.8150593989562799
aa(lp1889
F18.0
aF0.6608246161981156
aa(lp1890
F18.0
aF0.7528544448910229
aa(lp1891
F18.0
aF0.01743644102226211
aa(lp1892
F18.0
aF0.3220812140097824
aa(lp1893
F18.0
aF0.6883849324022518
aa(lp1894
F18.0
aF0.6023340845537658
aa(lp1895
F14.0
aF0.8108365867381012
aa(lp1896
F14.0
aF0.8415825085770516
aa(lp1897
F18.0
aF0.04162047146469161
aa(lp1898
F15.0
aF0.17606305648787998
aa(lp1899
F18.0
aF0.2743330996498116
aa(lp1900
F14.0
aF0.0261727656091624
aa(lp1901
F16.0
aF0.0031092077606569876
aa(lp1902
F12.0
aF0.1686018333330085
aa(lp1903
F14.0
aF0.16263600706348944
aa(lp1904
F18.0
aF0.2230758721718557
aa(lp1905
F18.0
aF0.27442597579309214
aa(lp1906
F18.0
aF0.2578124669319004
aa(lp1907
F15.0
aF0.8187188136653842
aa(lp1908
F18.0
aF0.7891225574987449
aa(lp1909
F18.0
aF0.46492646146200806
aa(lp1910
F18.0
aF0.5487415554798509
aa(lp1911
F18.0
aF0.36205335162024516
aa(lp1912
F18.0
aF0.5144770942798136
aa(lp1913
F15.0
aF0.5947894249012533
aa(lp1914
F16.0
aF0.6993539443538953
aa(lp1915
F14.0
aF0.36253775814358413
aa(lp1916
F18.0
aF0.5504175108032959
aa(lp1917
F18.0
aF0.3211626558372653
aa(lp1918
F18.0
aF0.4925427535987511
aa(lp1919
F14.0
aF0.1418729056313624
aa(lp1920
F18.0
aF0.2605260820400885
aa(lp1921
F14.0
aF0.9345990050334727
aa(lp1922
F18.0
aF0.08496576024113188
aa(lp1923
F15.0
aF0.18413756659053437
aa(lp1924
F12.0
aF0.08119286145365488
aa(lp1925
F18.0
aF0.6144240600540647
aa(lp1926
F12.0
aF0.1523725079364226
aa(lp1927
F18.0
aF0.2643835300772086
aa(lp1928
F18.0
aF0.6380802741562211
aa(lp1929
F18.0
aF0.6937759701793942
aa(lp1930
F15.0
aF0.4613927832398061
aa(lp1931
F18.0
aF0.3337891365269448
aa(lp1932
F18.0
aF0.7137677612617905
aa(lp1933
F16.0
aF0.5876312160110208
aa(lp1934
F18.0
aF0.7086456202925889
aa(lp1935
F16.0
aF0.6975356218305516
aa(lp1936
F18.0
aF0.4788665510354945
aa(lp1937
F14.0
aF0.8482438174041514
aa(lp1938
F15.0
aF0.8017396417759848
aa(lp1939
F15.0
aF0.9965598659438453
aa(lp1940
F15.0
aF0.37950704141388963
aa(lp1941
F18.0
aF0.7955595478088231
aa(lp1942
F16.0
aF0.8768210805513896
aa(lp1943
F18.0
aF0.4516836031313074
aa(lp1944
F18.0
aF0.658548504434373
aa(lp1945
F14.0
aF0.8556227338953785
aa(lp1946
F14.0
aF0.9558324428406982
aa(lp1947
F18.0
aF0.07010029084437974
aa(lp1948
F14.0
aF0.9870029282478611
aa(lp1949
F18.0
aF0.5901533038609291
aa(lp1950
F18.0
aF0.3983396978954369
aa(lp1951
F15.0
aF0.518669251660419
aa(lp1952
F18.0
aF0.17523729065475369
aa(lp1953
F18.0
aF0.6997854880396828
aa(lp1954
F18.0
aF0.5131923413893155
aa(lp1955
F12.0
aF0.12663480363909302
aa(lp1956
F18.0
aF0.6377258144247231
aa(lp1957
F14.0
aF0.8370007141036554
aa(lp1958
F12.0
aF0.1465186572738192
aa(lp1959
F16.0
aF0.46788397782256275
aa(lp1960
F16.0
aF0.7396540826122895
aa(lp1961
F16.0
aF0.49227547402539873
aa(lp1962
F18.0
aF0.6395325654394671
aa(lp1963
F18.0
aF0.685160656119873
aa(lp1964
F18.0
aF0.3090395096057478
aa(lp1965
F14.0
aF0.4096866099297106
aa(lp1966
F18.0
aF0.7427060274816388
aa(lp1967
F14.0
aF0.9439723966885578
aa(lp1968
F14.0
aF0.8397610412359924
aa(lp1969
F18.0
aF0.5062155359990729
aa(lp1970
F16.0
aF0.4814942710037269
aa(lp1971
F16.0
aF0.4991978756900756
aa(lp1972
F18.0
aF0.3011025280360945
aa(lp1973
F14.0
aF0.7772978004245673
aa(lp1974
F15.0
aF0.38051716046986306
aa(lp1975
F18.0
aF0.5478336880563094
aa(lp1976
F16.0
aF0.379872596706064
aa(lp1977
F18.0
aF0.3751109990336869
aa(lp1978
F16.0
aF0.26926421538889883
aa(lp1979
F12.0
aF0.07796403804172865
aa(lp1980
F16.0
aF0.42970732940358025
aa(lp1981
F18.0
aF0.2995605244472966
aa(lp1982
F18.0
aF0.3580355410407129
aa(lp1983
F18.0
aF0.019422724618564584
aa(lp1984
F12.0
aF0.16733143282553825
aa(lp1985
F14.0
aF0.17459160988739664
aa(lp1986
F15.0
aF0.7308943111800951
aa(lp1987
F15.0
aF0.22424326425121452
aa(lp1988
F16.0
aF0.29240641639431003
aa(lp1989
F16.0
aF0.45219740279125903
aa(lp1990
F15.0
aF0.4433805871118477
aa(lp1991
F18.0
aF0.3645965099424213
aa(lp1992
F12.0
aF0.12161465110394097
aa(lp1993
F18.0
aF0.5872615150086484
aa(lp1994
F18.0
aF0.3444914805561394
aa(lp1995
F18.0
aF0.7385601777007011
aa(lp1996
F18.0
aF0.21537342795769893
aa(lp1997
F12.0
aF0.12967059166742811
aa(lp1998
F18.0
aF0.6855205606695768
aa(lp1999
F14.0
aF0.3815272306083948
aa(lp2000
F16.0
aF0.7453937071849709
aa(lp2001
F18.0
aF0.488013106044683
aa(lp2002
F18.0
aF0.047273374944714126
aa(lp2003
F18.0
aF0.1986798077393091
aa(lp2004
F18.0
aF0.07149853888708385
aa(lp2005
F16.0
aF0.24135336433111024
aa(lp2006
F12.0
aF0.1631652142588381
aa(lp2007
F12.0
aF0.08543976989671591
aa(lp2008
F15.0
aF0.8396616623057324
aa(lp2009
F16.0
aF0.2500041485488304
aa(lp2010
F18.0
aF0.4179143776637267
aa(lp2011
F16.0
aF0.9129454418847872
aa(lp2012
F18.0
aF0.06651679712078626
aa(lp2013
F18.0
aF0.7158740426669417
aa(lp2014
F15.0
aF0.5091473954079249
aa(lp2015
F18.0
aF0.6798777065500872
aa(lp2016
F12.0
aF0.13189189818810426
aa(lp2017
F18.0
aF0.5826192338166287
aa(lp2018
F16.0
aF0.6777853638016486
aa(lp2019
F12.0
aF0.09079831574805396
aa(lp2020
F18.0
aF0.4537860412276857
aa(lp2021
F16.0
aF0.38192098228975596
aa(lp2022
F18.0
aF0.7623274236175084
aa(lp2023
F18.0
aF0.5275219293039216
aa(lp2024
F15.0
aF0.04714973734737843
aa(lp2025
F16.0
aF0.7466784902581536
aa(lp2026
F15.0
aF0.0588814681449099
aa(lp2027
F18.0
aF0.5899482130929435
aa(lp2028
F18.0
aF0.041250715657221874
aa(lp2029
F12.0
aF0.17924230283677686
aa(lp2030
F18.0
aF0.26564730672514053
aa(lp2031
F18.0
aF0.5960699957967539
aa(lp2032
F16.0
aF0.8057315687391617
aa(lp2033
F18.0
aF0.7734254712549138
aa(lp2034
F16.0
aF0.06866524982771764
aa(lp2035
F18.0
aF0.25047876190805296
aa(lp2036
F18.0
aF0.24364198854793223
aa(lp2037
F16.0
aF0.8247318831866178
aa(lp2038
F12.0
aF0.08010100721895538
aa(lp2039
F18.0
aF0.4034754571613492
aa(lp2040
F12.0
aF0.1290034174039962
aa(lp2041
F12.0
aF0.1423013253714472
aa(lp2042
F16.0
aF0.2066922906850307
aa(lp2043
F14.0
aF0.827213827048245
aa(lp2044
F14.0
aF0.17662646628494222
aa(lp2045
F12.0
aF0.20595396728303897
aa(lp2046
F18.0
aF0.5034092443673986
aa(lp2047
F15.0
aF0.9130316261484537
aa(lp2048
F15.0
aF0.40398592645836295
aa(lp2049
F18.0
aF0.021078419736062847
aa(lp2050
F14.0
aF0.31072381454777664
aa(lp2051
F15.0
aF0.8710184779475083
aa(lp2052
F18.0
aF0.3523246268244284
aa(lp2053
F16.0
aF0.7636660192364427
aa(lp2054
F18.0
aF0.26428895502091765
aa(lp2055
F14.0
aF0.40697907004426964
aa(lp2056
F16.0
aF0.7232965392300552
aa(lp2057
F18.0
aF0.3890942071627557
aa(lp2058
F18.0
aF0.215322747808499
aa(lp2059
F16.0
aF0.4947593728487005
aa(lp2060
F15.0
aF0.5521247646098525
aa(lp2061
F16.0
aF0.5220012701150412
aa(lp2062
F14.0
aF0.343138631923669
aa(lp2063
F18.0
aF0.5237402444068786
aa(lp2064
F18.0
aF0.25573486209241336
aa(lp2065
F18.0
aF0.40414217754390047
aa(lp2066
F14.0
aF0.21686011965591195
aa(lp2067
F15.0
aF0.9920935535657531
aa(lp2068
F18.0
aF0.5824555704332816
aa(lp2069
F15.0
aF0.3748610297729966
aa(lp2070
F14.0
aF0.08121984615446282
aa(lp2071
F18.0
aF0.7165781118292792
aa(lp2072
F12.0
aF0.07663982725091205
aa(lp2073
F14.0
aF0.9478983672675155
aa(lp2074
F18.0
aF0.43075270789399656
aa(lp2075
F15.0
aF0.7736128294763888
aa(lp2076
F18.0
aF0.41714184110907127
aa(lp2077
F16.0
aF0.5291148003851521
aa(lp2078
F18.0
aF0.5096491715441852
aa(lp2079
F18.0
aF0.19596493051718641
aa(lp2080
F18.0
aF0.18712785979087568
aa(lp2081
F15.0
aF0.614880983910131
aa(lp2082
F12.0
aF0.11218830522924524
aa(lp2083
F14.0
aF0.9833921296555118
aa(lp2084
F18.0
aF0.36555944486110914
aa(lp2085
F12.0
aF0.13363375080974754
aa(lp2086
F12.0
aF0.10893738927355717
aa(lp2087
F15.0
aF0.04466783524315056
aa(lp2088
F15.0
aF0.17978797741021324
aa(lp2089
F14.0
aF0.9945485044165625
aa(lp2090
F18.0
aF0.006677366104258796
aa(lp2091
F15.0
aF0.26178432027419435
aa(lp2092
F18.0
aF0.13292581861583963
aa(lp2093
F14.0
aF0.884710324805082
aa(lp2094
F16.0
aF0.4646805273325719
aa(lp2095
F18.0
aF0.07911732817882958
aa(lp2096
F18.0
aF0.608690088757643
aa(lp2097
F18.0
aF0.04104183640267292
aa(lp2098
F18.0
aF0.27319973723942204
aa(lp2099
F12.0
aF0.11149031408542585
aa(lp2100
F18.0
aF0.7193800566039253
aa(lp2101
F18.0
aF0.11421758542536359
aa(lp2102
F14.0
aF0.7811203875416078
aa(lp2103
F18.0
aF0.7766881911918936
aa(lp2104
F16.0
aF0.49915362423955995
aa(lp2105
F14.0
aF0.9512276584116057
aa(lp2106
F16.0
aF0.8246070592263943
aa(lp2107
F17.0
aF0.7812945536076967
aa(lp2108
F18.0
aF0.6937802672884068
aa(lp2109
F18.0
aF0.7513356161873358
aa(lp2110
F18.0
aF0.12425518905345631
aa(lp2111
F18.0
aF0.012743155926611717
aa(lp2112
F18.0
aF0.36244995152970116
aa(lp2113
F15.0
aF0.8869600882387577
aa(lp2114
F16.0
aF0.7059703542411069
aa(lp2115
F18.0
aF0.35111138573735445
aa(lp2116
F18.0
aF0.7259258440959594
aa(lp2117
F18.0
aF0.691834088281738
aa(lp2118
F18.0
aF0.726955137164377
aa(lp2119
F18.0
aF0.6618280310397762
aa(lp2120
F18.0
aF0.034903007758705244
aa(lp2121
F18.0
aF0.4817710615170609
aa(lp2122
F12.0
aF0.1067511312433297
aa(lp2123
F16.0
aF0.9063137741826333
aa(lp2124
F15.0
aF0.9542138949406836
aa(lp2125
F18.0
aF0.28407862792306493
aa(lp2126
F12.0
aF0.15070282042414762
aa(lp2127
F18.0
aF0.29917994313702934
aa(lp2128
F18.0
aF0.07200806605763366
aa(lp2129
F18.0
aF0.3663388062051892
aa(lp2130
F12.0
aF0.1288409219647221
aa(lp2131
F15.0
aF0.2460348232331632
aa(lp2132
F16.0
aF0.4616740104182733
aa(lp2133
F12.0
aF0.12696524392862646
aa(lp2134
F16.0
aF0.43283444078196615
aa(lp2135
F16.0
aF0.7971347376240326
aa(lp2136
F16.0
aF0.4111616806267556
aa(lp2137
F18.0
aF0.13908375923344773
aa(lp2138
F12.0
aF0.07672718644896667
aa(lp2139
F18.0
aF0.6908005997974104
aa(lp2140
F18.0
aF0.6771830626982319
aa(lp2141
F18.0
aF0.5769989608493715
aa(lp2142
F18.0
aF0.3276367314875904
aa(lp2143
F17.0
aF0.12495809531702955
aa(lp2144
F15.0
aF0.7037696825128164
aa(lp2145
F18.0
aF0.02392930515335404
aa(lp2146
F15.0
aF0.6774579659149759
aa(lp2147
F12.0
aF0.1640175824417486
aa(lp2148
F18.0
aF0.3509364254220715
aa(lp2149
F12.0
aF0.14669705688593754
aa(lp2150
F18.0
aF0.6374629177713971
aa(lp2151
F16.0
aF0.9345925333341971
aa(lp2152
F18.0
aF0.5432916155824596
aa(lp2153
F18.0
aF0.7185328840600578
aa(lp2154
F18.0
aF0.6796211949576766
aa(lp2155
F18.0
aF0.011965386780560019
aa(lp2156
F12.0
aF0.07175303882490017
aa(lp2157
F15.0
aF0.44377099322391417
aa(lp2158
F14.0
aF0.8570200661449775
aa(lp2159
F16.0
aF0.6692450998734223
aa(lp2160
F18.0
aF0.0717375361965655
aa(lp2161
F18.0
aF0.4211154051451752
aa(lp2162
F12.0
aF0.08615600063482558
aa(lp2163
F18.0
aF0.544671567393418
aa(lp2164
F12.0
aF0.12682332781638878
aa(lp2165
F16.0
aF0.7334961894016389
aa(lp2166
F17.0
aF0.42384858577855056
aa(lp2167
F12.0
aF0.13177217139073918
aa(lp2168
F18.0
aF0.6572098492298857
aa(lp2169
F18.0
aF0.6178125551085116
aa(lp2170
F16.0
aF0.764561758441037
aa(lp2171
F18.0
aF0.6996250011010794
aa(lp2172
F18.0
aF0.6406886621171679
aa(lp2173
F15.0
aF0.43188290511531297
aa(lp2174
F18.0
aF0.23810461392523533
aa(lp2175
F18.0
aF0.623884112248031
aa(lp2176
F16.0
aF0.9740819329347937
aa(lp2177
F18.0
aF0.7103504244950107
aa(lp2178
F18.0
aF0.27243591427710107
aa(lp2179
F18.0
aF0.38401605756262275
aa(lp2180
F16.0
aF0.7117778502110833
aa(lp2181
F12.0
aF0.18516845954775518
aa(lp2182
F18.0
aF0.745917135762692
aa(lp2183
F18.0
aF0.2332337032029478
aa(lp2184
F17.0
aF0.4738182029634619
aa(lp2185
F18.0
aF0.28054945380043694
aa(lp2186
F18.0
aF0.7108260352372349
aa(lp2187
F12.0
aF0.08777241319501017
aa(lp2188
F15.0
aF0.9480695302397252
aa(lp2189
F18.0
aF0.7193766979067284
aa(lp2190
F14.0
aF0.9809228060207809
aa(lp2191
F18.0
aF0.35234273813584494
aa(lp2192
F18.0
aF0.7085193208069849
aa(lp2193
F18.0
aF0.35124355465171786
aa(lp2194
F17.0
aF0.4542306951221094
aa(lp2195
F16.0
aF0.7370189105012516
aa(lp2196
F12.0
aF0.10665634946144487
aa(lp2197
F12.0
aF0.16540731611874948
aa(lp2198
F17.0
aF0.6143366770123361
aa(lp2199
F18.0
aF0.09313963045310128
aa(lp2200
F18.0
aF0.3493513923114678
aa(lp2201
F12.0
aF0.15475704690704745
aa(lp2202
F18.0
aF0.52774706255836
aa(lp2203
F18.0
aF0.7123468435561917
aa(lp2204
F18.0
aF0.2907652535095325
aa(lp2205
F18.0
aF0.39900855163607096
aa(lp2206
F18.0
aF0.03842576579983746
aa(lp2207
F18.0
aF0.5932612686048084
aa(lp2208
F18.0
aF0.6520629853282547
aa(lp2209
F12.0
aF0.1177988130417589
aa(lp2210
F14.0
aF0.8360512055094439
aa(lp2211
F15.0
aF0.6011305531000553
aa(lp2212
F16.0
aF0.7695123842460982
aa(lp2213
F18.0
aF0.6150077391776756
aa(lp2214
F18.0
aF0.14806146027383943
aa(lp2215
F18.0
aF0.0447566451115098
aa(lp2216
F12.0
aF0.11372838210088983
aa(lp2217
F12.0
aF0.11717277248571824
aa(lp2218
F15.0
aF0.06895864681614665
aa(lp2219
F18.0
aF0.49254564175610266
aa(lp2220
F18.0
aF0.39590582152372594
aa(lp2221
F16.0
aF0.545066054838103
aa(lp2222
F18.0
aF0.23089243325762468
aa(lp2223
F18.0
aF0.019902994986878936
aa(lp2224
F18.0
aF0.03909142578069835
aa(lp2225
F15.0
aF0.5905445823723998
aa(lp2226
F18.0
aF0.6597674426892042
aa(lp2227
F12.0
aF0.1071250956689999
aa(lp2228
F18.0
aF0.112973111216394
aa(lp2229
F18.0
aF0.5784959614215117
aa(lp2230
F12.0
aF0.12399379797559155
aa(lp2231
F18.0
aF0.411250198371047
aa(lp2232
F18.0
aF0.5643187271943697
aa(lp2233
F18.0
aF0.22366349661120857
aa(lp2234
F16.0
aF0.8004668245196167
aa(lp2235
F15.0
aF0.9767639008780437
aa(lp2236
F16.0
aF0.5890274670911613
aa(lp2237
F18.0
aF0.20787396087478968
aa(lp2238
F15.0
aF0.891705661409266
aa(lp2239
F14.0
aF0.9369301970306706
aa(lp2240
F16.0
aF0.014600870420951775
aa(lp2241
F18.0
aF0.33474629942045325
aa(lp2242
F16.0
aF0.1528167535641056
aa(lp2243
F18.0
aF0.08297135071726623
aa(lp2244
F15.0
aF0.5198055230883263
aa(lp2245
F18.0
aF0.3204373250220905
aa(lp2246
F12.0
aF0.08460196847007447
aa(lp2247
F16.0
aF0.8633472683240064
aa(lp2248
F18.0
aF0.529544220366818
aa(lp2249
F18.0
aF0.6510136743596779
aa(lp2250
F18.0
aF0.36804242686519956
aa(lp2251
F15.0
aF0.24157992598501188
aa(lp2252
F16.0
aF0.7341779570033109
aa(lp2253
F12.0
aF0.11628445178083964
aa(lp2254
F18.0
aF0.08332373536543247
aa(lp2255
F18.0
aF0.04777303014223656
aa(lp2256
F14.0
aF0.8379541713289318
aa(lp2257
F18.0
aF0.3962397966339431
aa(lp2258
F14.0
aF0.902361458946292
aa(lp2259
F12.0
aF0.1259522400171757
aa(lp2260
F18.0
aF0.6976533592714229
aa(lp2261
F18.0
aF0.08211640859018349
aa(lp2262
F15.0
aF0.8804499471745451
aa(lp2263
F17.0
aF0.5960754122466628
aa(lp2264
F18.0
aF0.6392643885914912
aa(lp2265
F18.0
aF0.27092279655134455
aa(lp2266
F18.0
aF0.03537973199855314
aa(lp2267
F15.0
aF0.2742870998252848
aa(lp2268
F18.0
aF0.18018704204125724
aa(lp2269
F18.0
aF0.042001906651768194
aa(lp2270
F15.0
aF0.6490497489583485
aa(lp2271
F14.0
aF0.8756806232869132
aa(lp2272
F16.0
aF0.8236034027993024
aa(lp2273
F18.0
aF0.7337516373879631
aa(lp2274
F16.0
aF0.09257391348100844
aa(lp2275
F14.0
aF0.9357102025970243
aa(lp2276
F18.0
aF0.6662128206401134
aa(lp2277
F18.0
aF0.7117738017194422
aa(lp2278
F18.0
aF0.36714753614068196
aa(lp2279
F14.0
aF0.8988644188203715
aa(lp2280
F18.0
aF0.005210889627102865
aa(lp2281
F18.0
aF0.16084481240891815
aa(lp2282
F18.0
aF0.1950888594509504
aa(lp2283
F12.0
aF0.09148199823266784
aa(lp2284
F16.0
aF0.5065735656331704
aa(lp2285
F18.0
aF0.591544328868533
aa(lp2286
F18.0
aF0.2891590627932
aa(lp2287
F14.0
aF0.9959824670948103
aa(lp2288
F16.0
aF0.7877998430213844
aa(lp2289
F16.0
aF0.5647521251503745
aa(lp2290
F18.0
aF0.5705755404480826
aa(lp2291
F16.0
aF0.7404737159048349
aa(lp2292
F18.0
aF0.07854888560096912
aa(lp2293
F16.0
aF0.7803904798438984
aa(lp2294
F18.0
aF0.1962984514609852
aa(lp2295
F18.0
aF0.03824386644732292
aa(lp2296
F16.0
aF0.9890237331057382
aa(lp2297
F18.0
aF0.3190698135104254
aa(lp2298
F16.0
aF0.12522563377686044
aa(lp2299
F18.0
aF0.017660009646710745
aa(lp2300
F18.0
aF0.12195154215589185
aa(lp2301
F15.0
aF0.4367716085468988
aa(lp2302
F16.0
aF0.05110962930555419
aa(lp2303
F18.0
aF0.6760397181472865
aa(lp2304
F14.0
aF0.8752376990009442
aa(lp2305
F15.0
aF0.7985127022014512
aa(lp2306
F18.0
aF0.216595435994599
aa(lp2307
F14.0
aF0.8418188522865705
aa(lp2308
F18.0
aF0.5980242312616232
aa(lp2309
F18.0
aF0.20323556975781443
aa(lp2310
F18.0
aF0.040763488832025116
aa(lp2311
F15.0
aF0.874564733070059
aa(lp2312
F17.0
aF0.5384627939352205
aa(lp2313
F15.0
aF0.022449086122593227
aa(lp2314
F15.0
aF0.9768201654810015
aa(lp2315
F15.0
aF0.3946097962196555
aa(lp2316
F16.0
aF0.9899491141304905
aa(lp2317
F18.0
aF0.6083123056816591
aa(lp2318
F18.0
aF0.34725856792739296
aa(lp2319
F18.0
aF0.2588318472245034
aa(lp2320
F18.0
aF0.432057918936275
aa(lp2321
F15.0
aF0.3701671606634775
aa(lp2322
F12.0
aF0.09698516683287747
aa(lp2323
F18.0
aF0.003993515112970942
aa(lp2324
F12.0
aF0.07763572594839253
aa(lp2325
F18.0
aF0.2945031956206465
aa(lp2326
F18.0
aF0.6536468448355872
aa(lp2327
F18.0
aF0.6006710075841626
aa(lp2328
F16.0
aF0.5988075341229839
aa(lp2329
F16.0
aF0.9006916110289245
aa(lp2330
F18.0
aF0.6663297937592041
aa(lp2331
F18.0
aF0.5618347584428539
aa(lp2332
F18.0
aF0.09295984452807836
aa(lp2333
F18.0
aF0.35368927900224845
aa(lp2334
F18.0
aF0.6699534901037445
aa(lp2335
F15.0
aF0.02628401340498533
aa(lp2336
F18.0
aF0.7640083004372459
aa(lp2337
F18.0
aF0.5546619700946669
aa(lp2338
F18.0
aF0.6214787452551759
aa(lp2339
F15.0
aF0.9587121589985598
aa(lp2340
F12.0
aF0.0801783394943765
aa(lp2341
F18.0
aF0.09290102150246445
aa(lp2342
F18.0
aF0.39760367711595557
aa(lp2343
F18.0
aF0.6924001278892455
aa(lp2344
F16.0
aF0.26630952707421945
aa(lp2345
F18.0
aF0.7516237471157248
aa(lp2346
F15.0
aF0.9367298182403787
aa(lp2347
F15.0
aF0.03214739073144926
aa(lp2348
F18.0
aF0.22912378017231902
aa(lp2349
F18.0
aF0.713184575171871
aa(lp2350
F16.0
aF0.18315838031264664
aa(lp2351
F12.0
aF0.09858157706554072
aa(lp2352
F15.0
aF0.1777100464601703
aa(lp2353
F18.0
aF0.15192622613407428
aa(lp2354
F18.0
aF0.6051091858018494
aa(lp2355
F18.0
aF0.5739996659095129
aa(lp2356
F18.0
aF0.34790574414061715
aa(lp2357
F18.0
aF0.5171173844237589
aa(lp2358
F18.0
aF0.023147417436642843
aa(lp2359
F18.0
aF0.07304168851111426
aa(lp2360
F18.0
aF0.17518322732668482
aa(lp2361
F16.0
aF0.8820994003816484
aa(lp2362
F17.0
aF0.900697488083869
aa(lp2363
F18.0
aF0.5430238592647587
aa(lp2364
F12.0
aF0.07413849419909994
aa(lp2365
F18.0
aF0.5255728004126062
aa(lp2366
F18.0
aF0.034147654147414705
aa(lp2367
F12.0
aF0.07797905477468049
aa(lp2368
F18.0
aF0.584634463590863
aa(lp2369
F16.0
aF0.3068139736144905
aa(lp2370
F15.0
aF0.6378556947695927
aa(lp2371
F15.0
aF0.12907854931595836
aa(lp2372
F17.0
aF0.4700604544075038
aa(lp2373
F18.0
aF0.6949879506172489
aa(lp2374
F16.0
aF0.6379174526431654
aa(lp2375
F17.0
aF0.7802784175982413
aa(lp2376
F16.0
aF0.2765444374306655
aa(lp2377
F18.0
aF0.4543594668721992
aa(lp2378
F18.0
aF0.5576612333338988
aa(lp2379
F18.0
aF0.41994643780338853
aa(lp2380
F18.0
aF0.7152245392823914
aa(lp2381
F18.0
aF0.5867332566381699
aa(lp2382
F18.0
aF0.5555318487100723
aa(lp2383
F18.0
aF0.2953222635179299
aa(lp2384
F15.0
aF0.8284522956622417
aa(lp2385
F18.0
aF0.49033457968037286
aa(lp2386
F15.0
aF0.3839268361967511
aa(lp2387
F12.0
aF0.12804640697556682
aa(lp2388
F18.0
aF0.34760105847486567
aa(lp2389
F18.0
aF0.060156402641531916
aa(lp2390
F18.0
aF0.7601184571834385
aa(lp2391
F18.0
aF0.6222087083376497
aa(lp2392
F18.0
aF0.5509967331115966
aa(lp2393
F18.0
aF0.6755172446182477
aa(lp2394
F18.0
aF0.5731090720324509
aa(lp2395
F12.0
aF0.0861596215155624
aa(lp2396
F18.0
aF0.6018655125017365
aa(lp2397
F12.0
aF0.12617950894079338
aa(lp2398
F18.0
aF0.35587294619066273
aa(lp2399
F12.0
aF0.1251271594719802
aa(lp2400
F18.0
aF0.5210532649925911
aa(lp2401
F16.0
aF0.4308071574621332
aa(lp2402
F15.0
aF0.1301652568517459
aa(lp2403
F18.0
aF0.23773671668476415
aa(lp2404
F18.0
aF0.19383110916557783
aa(lp2405
F12.0
aF0.08959035791672536
aa(lp2406
F18.0
aF0.3531717717479465
aa(lp2407
F15.0
aF0.1303169666029875
aa(lp2408
F12.0
aF0.11721691789246172
aa(lp2409
F18.0
aF0.4644073700133025
aa(lp2410
F18.0
aF0.526908001137968
aa(lp2411
F16.0
aF0.5247471947970198
aa(lp2412
F14.0
aF0.8857159764103281
aa(lp2413
F18.0
aF0.08329936600485466
aa(lp2414
F18.0
aF0.6823020308321682
aa(lp2415
F18.0
aF0.5953111745762094
aa(lp2416
F12.0
aF0.09806793408103275
aa(lp2417
F12.0
aF0.08372159143158749
aa(lp2418
F18.0
aF0.6148101336811688
aa(lp2419
F17.0
aF0.674825929470071
aa(lp2420
F18.0
aF0.397908079150017
aa(lp2421
F12.0
aF0.0912518602992143
aa(lp2422
F18.0
aF0.47081533154595795
aa(lp2423
F18.0
aF0.3677625632617288
aa(lp2424
F18.0
aF0.6797864119333377
aa(lp2425
F18.0
aF0.575426050770229
aa(lp2426
F15.0
aF0.2640966474247035
aa(lp2427
F12.0
aF0.13503129174329215
aa(lp2428
F18.0
aF0.17302008561465174
aa(lp2429
F18.0
aF0.651008427905795
aa(lp2430
F18.0
aF0.6265325693838837
aa(lp2431
F18.0
aF0.6160977744674625
aa(lp2432
F15.0
aF0.8881347288292873
aa(lp2433
F18.0
aF0.7518507999844104
aa(lp2434
F18.0
aF0.5998401948658761
aa(lp2435
F14.0
aF0.9959016164430087
aa(lp2436
F15.0
aF0.019394843057359386
aa(lp2437
F18.0
aF0.7512369465712573
aa(lp2438
F15.0
aF0.4907390419260288
aa(lp2439
F18.0
aF0.7012494678570081
aa(lp2440
F15.0
aF0.06776771003235375
aa(lp2441
F18.0
aF0.6231021583575677
aa(lp2442
F18.0
aF0.592033369534596
aa(lp2443
F14.0
aF0.8493630019032625
aa(lp2444
F18.0
aF0.06606140102139667
aa(lp2445
F18.0
aF0.7175800679189537
aa(lp2446
F18.0
aF0.35849256119569206
aa(lp2447
F18.0
aF0.6930186106402667
aa(lp2448
F18.0
aF0.22148067482517764
aa(lp2449
F15.0
aF0.08528683980943891
aa(lp2450
F18.0
aF0.3853372476044611
aa(lp2451
F18.0
aF0.7081638647027879
aa(lp2452
F18.0
aF0.7420857876474762
aa(lp2453
F15.0
aF0.17559738631448166
aa(lp2454
F18.0
aF0.6073211998903232
aa(lp2455
F18.0
aF0.36961914839555376
aa(lp2456
F14.0
aF0.9332739212315022
aa(lp2457
F12.0
aF0.11041139870891716
aa(lp2458
F18.0
aF0.20792143204163818
aa(lp2459
F18.0
aF0.6515093679203421
aa(lp2460
F18.0
aF0.3879679434435822
aa(lp2461
F18.0
aF0.7405651762804399
aa(lp2462
F18.0
aF0.6203564780644754
aa(lp2463
F15.0
aF0.08823763241967311
aa(lp2464
F12.0
aF0.10869587843180338
aa(lp2465
F12.0
aF0.10490090409724011
aa(lp2466
F12.0
aF0.11286539812828877
aa(lp2467
F12.0
aF0.08528324646835175
aa(lp2468
F14.0
aF0.9651038102474631
aa(lp2469
F18.0
aF0.5449784781189027
aa(lp2470
F15.0
aF0.48539748480802325
aa(lp2471
F18.0
aF0.31658423932613156
aa(lp2472
F18.0
aF0.758300695117832
aa(lp2473
F18.0
aF0.669547504663731
aa(lp2474
F18.0
aF0.6285286180812957
aa(lp2475
F18.0
aF0.07388831011272036
aa(lp2476
F18.0
aF0.33583939230378557
aa(lp2477
F15.0
aF0.896007698187432
aa(lp2478
F18.0
aF0.5037707552914841
aa(lp2479
F18.0
aF0.7347087897669062
aa(lp2480
F18.0
aF0.7115825007768123
aa(lp2481
F18.0
aF0.4374305185088938
aa(lp2482
F18.0
aF0.6259743984371297
aa(lp2483
F14.0
aF0.9204429864286215
aa(lp2484
F18.0
aF0.7200081928238122
aa(lp2485
F18.0
aF0.4273494225612176
aa(lp2486
F18.0
aF0.2958432355566776
aa(lp2487
F14.0
aF0.9327666270919613
aa(lp2488
F18.0
aF0.6638442211442471
aa(lp2489
F14.0
aF0.8415076560441823
aa(lp2490
F18.0
aF0.6742448514676922
aa(lp2491
F18.0
aF0.03341939552294646
aa(lp2492
F18.0
aF0.2611249869333274
aa(lp2493
F12.0
aF0.0988188764357447
aa(lp2494
F18.0
aF0.49080165301460865
aa(lp2495
F12.0
aF0.08588245455373757
aa(lp2496
F18.0
aF0.7151861331872802
aa(lp2497
F18.0
aF0.5391866199592983
aa(lp2498
F18.0
aF0.5818435719776486
aa(lp2499
F18.0
aF0.35322847161617377
aa(lp2500
F18.0
aF0.4454542781405211
aa(lp2501
F12.0
aF0.10782989263609087
aa(lp2502
F18.0
aF0.02857583883287542
aa(lp2503
F18.0
aF0.35858802878681767
aa(lp2504
F12.0
aF0.09203268035881756
aa(lp2505
F18.0
aF0.7137309670337442
aa(lp2506
F18.0
aF0.6344433117790393
aa(lp2507
F18.0
aF0.5156682445804702
aa(lp2508
F18.0
aF0.6574605674018078
aa(lp2509
F15.0
aF0.8842716201928718
aa(lp2510
F18.0
aF0.4381470012917788
aa(lp2511
F18.0
aF0.6096010984143589
aa(lp2512
F18.0
aF0.47544981066946784
aa(lp2513
F12.0
aF0.09367974520556271
aa(lp2514
F15.0
aF0.259723930309529
aa(lp2515
F15.0
aF0.49202021051424655
aa(lp2516
F18.0
aF0.5099641888420656
aa(lp2517
F18.0
aF0.5795591783987678
aa(lp2518
F12.0
aF0.07335833425384915
aa(lp2519
F18.0
aF0.5933167010233523
aa(lp2520
F18.0
aF0.6460902411376844
aa(lp2521
F18.0
aF0.5497536346889448
aa(lp2522
F18.0
aF0.5904855152444729
aa(lp2523
F18.0
aF0.7497430568978423
aa(lp2524
F18.0
aF0.6965801703019989
aa(lp2525
F12.0
aF0.11648818764747604
aa(lp2526
F18.0
aF0.6451887201693437
aa(lp2527
F18.0
aF0.6862505709891246
aa(lp2528
F18.0
aF0.6737199881507406
aa(lp2529
F15.0
aF0.22715057010820158
aa(lp2530
F18.0
aF0.6693764768479309
aa(lp2531
F15.0
aF0.3274096603838374
aa(lp2532
F12.0
aF0.11940859608333611
aa(lp2533
F18.0
aF0.6677572591614481
aa(lp2534
F18.0
aF0.519897259127249
aa(lp2535
F12.0
aF0.12594089137905026
aa(lp2536
F18.0
aF0.6481265452381112
aa(lp2537
F18.0
aF0.71889392622288
aa(lp2538
F18.0
aF0.6676083713046558
aa(lp2539
F17.0
aF0.9088516155419132
aa(lp2540
F18.0
aF0.7035655903116603
aa(lp2541
F18.0
aF0.5917200277665922
aa(lp2542
F17.0
aF0.20915341513288022
aa(lp2543
F12.0
aF0.07840665101573839
aa(lp2544
F18.0
aF0.6870876368916223
aa(lp2545
F18.0
aF0.7268857278030768
aa(lp2546
F17.0
aF0.2685607690072057
aa(lp2547
F18.0
aF0.6504283012403147
aa(lp2548
F18.0
aF0.6518759025046237
aa(lp2549
F18.0
aF0.5203087885676303
aa(lp2550
F18.0
aF0.5115592932839339
aa(lp2551
F15.0
aF0.3045718709438756
aa(lp2552
F18.0
aF0.6297466553791781
aa(lp2553
F18.0
aF0.7126868147407439
aa(lp2554
F12.0
aF0.13164030886775077
aa(lp2555
F18.0
aF0.4301213946016313
aa(lp2556
F18.0
aF0.6399758574440749
aa(lp2557
F12.0
aF0.09362557805891904
aa(lp2558
F18.0
aF0.3497061100421338
aa(lp2559
F18.0
aF0.5254877567829944
aa(lp2560
F18.0
aF0.6566347936186089
aa(lp2561
F18.0
aF0.6474227273267894
aa(lp2562
F18.0
aF0.6249045398645067
aa(lp2563
F18.0
aF0.7419411000715416
aa(lp2564
F17.0
aF0.08539539878316994
aa(lp2565
F18.0
aF0.5207060631878068
aa(lp2566
F15.0
aF0.2600437115206591
aa(lp2567
F18.0
aF0.012356121027668561
aa(lp2568
F12.0
aF0.09240467538403044
aa(lp2569
F18.0
aF0.6762005975250144
aa(lp2570
F18.0
aF0.6147601279811334
aa(lp2571
F17.0
aF0.4529085896568611
aa(lp2572
F18.0
aF0.6529668560140781
aa(lp2573
F18.0
aF0.36911437799311814
aa(lp2574
F18.0
aF0.6353577147107002
aa(lp2575
F15.0
aF0.21747465126260954
aa(lp2576
F18.0
aF0.4525651085011852
aa(lp2577
F18.0
aF0.6204456350336183
aa(lp2578
F18.0
aF0.5628661050946727
aa(lp2579
F18.0
aF0.7052779346600798
aa(lp2580
F12.0
aF0.11090731418453208
aa(lp2581
F12.0
aF0.09394383277150786
aa(lp2582
F18.0
aF0.007591843265606075
aa(lp2583
F18.0
aF0.022764090569536304
aa(lp2584
F12.0
aF0.10593083878699129
aa(lp2585
F12.0
aF0.07288187988468256
aa(lp2586
F12.0
aF0.07972211900548637
aa(lp2587
F18.0
aF0.5133569311005763
aa(lp2588
F18.0
aF0.7274746705386642
aa(lp2589
F18.0
aF0.5260536571379097
aa(lp2590
F18.0
aF0.7378461122737664
aa(lp2591
F18.0
aF0.388904575734206
aa(lp2592
F18.0
aF0.6493025655510686
aa(lp2593
F18.0
aF0.6777683350137843
aa(lp2594
F18.0
aF0.7731061553309958
aa(lp2595
F12.0
aF0.11534074589524704
aa(lp2596
F18.0
aF0.6061280228419456
aa(lp2597
F15.0
aF0.25306203548117445
aa(lp2598
F18.0
aF0.5620571941098853
aa(lp2599
F12.0
aF0.09524961262732813
aa(lp2600
F18.0
aF0.6461967342698935
aa(lp2601
F18.0
aF0.7241242932919385
aa(lp2602
F18.0
aF0.6451260659711722
aa(lp2603
F17.0
aF0.5059561968615836
aa(lp2604
F18.0
aF0.43839224315411246
aa(lp2605
F18.0
aF0.057410419570826196
aa(lp2606
F18.0
aF0.4955716705257988
aa(lp2607
F18.0
aF0.34775894925760975
aa(lp2608
F18.0
aF0.7460316016027643
aa(lp2609
F18.0
aF0.4397644362102887
aa(lp2610
F18.0
aF0.6660337407602579
aa(lp2611
F15.0
aF0.3676900875462577
aa(lp2612
F17.0
aF0.6564417930610353
aa(lp2613
F12.0
aF0.13045197422941665
aa(lp2614
F18.0
aF0.5312620970501926
aa(lp2615
F18.0
aF0.3693434091169805
aa(lp2616
F12.0
aF0.07600688965014155
aa(lp2617
F12.0
aF0.09239884152201228
aa(lp2618
F18.0
aF0.5511441422858092
aa(lp2619
F18.0
aF0.6397772849214912
aa(lp2620
F18.0
aF0.7249087088459951
aa(lp2621
F18.0
aF0.6069378481753648
aa(lp2622
F18.0
aF0.4330466031867583
aa(lp2623
F18.0
aF0.7429964449878108
aa(lp2624
F18.0
aF0.563769831506022
aa(lp2625
F12.0
aF0.08128053090862766
aa(lp2626
F18.0
aF0.5220940309680452
aa(lp2627
F15.0
aF0.345029443277456
aa(lp2628
F12.0
aF0.13018185912928154
aa(lp2629
F12.0
aF0.10052781482494674
aa(lp2630
F12.0
aF0.0861387149577739
aa(lp2631
F12.0
aF0.09562535645429754
aa(lp2632
F18.0
aF0.6637541313082835
aa(lp2633
F18.0
aF0.6075701678318812
aa(lp2634
F18.0
aF0.6506189464089035
aa(lp2635
F18.0
aF0.5649606144246513
aa(lp2636
F18.0
aF0.7057104382505773
aa(lp2637
F18.0
aF0.541174279708096
aa(lp2638
F12.0
aF0.09912248277930219
aa(lp2639
F12.0
aF0.10684971024119226
aa(lp2640
F15.0
aF0.39440397009775485
aa(lp2641
F12.0
aF0.09707051245493507
aa(lp2642
F18.0
aF0.772470698986299
aa(lp2643
F12.0
aF0.10207859373139862
aa(lp2644
F12.0
aF0.07970482599769527
aa(lp2645
F18.0
aF0.3603422025842713
aa(lp2646
F12.0
aF0.11943896585359698
aa(lp2647
F18.0
aF0.68874717887506
aa(lp2648
F18.0
aF0.4863221289655495
aa(lp2649
F17.0
aF0.3245184286155363
aa(lp2650
F12.0
aF0.09115736222611623
aa(lp2651
F18.0
aF0.7480289424407769
aa(lp2652
F12.0
aF0.12346112416234449
aa(lp2653
F12.0
aF0.10856612408880646
aa(lp2654
F18.0
aF0.7483525523350314
aa(lp2655
F18.0
aF0.647180165527587
aa(lp2656
F18.0
aF0.5974671473953054
aa(lp2657
F18.0
aF0.6689906374706798
aa(lp2658
F15.0
aF0.4960833046609848
aa(lp2659
F18.0
aF0.39397130871422503
aa(lp2660
F18.0
aF0.6078112619861822
aa(lp2661
F12.0
aF0.10803098463220467
aa(lp2662
F18.0
aF0.07312626207168317
aa(lp2663
F18.0
aF0.5509737520397291
aa(lp2664
F18.0
aF0.712484961935552
aa(lp2665
F18.0
aF0.6484492644807381
aa(lp2666
F18.0
aF0.06192740214870964
aa(lp2667
F15.0
aF0.17072104345006972
aa(lp2668
F18.0
aF0.5406497423426477
aa(lp2669
F12.0
aF0.12253936268454065
aa(lp2670
F18.0
aF0.6676273191778511
aa(lp2671
F18.0
aF0.7540595915419152
aa(lp2672
F18.0
aF0.3498849352184308
aa(lp2673
F12.0
aF0.09096291220092935
aa(lp2674
F18.0
aF0.6399501198823149
aa(lp2675
F18.0
aF0.0011777285678810708
aa(lp2676
F18.0
aF0.654121390415795
aa(lp2677
F18.0
aF0.6923155037436824
aa(lp2678
F18.0
aF0.3823617618238227
aa(lp2679
F12.0
aF0.08798635247240386
aa(lp2680
F18.0
aF0.577173141517534
aa(lp2681
F18.0
aF0.592604107269288
aa(lp2682
F18.0
aF0.35582278612007723
aa(lp2683
F18.0
aF0.7222113200650364
aa(lp2684
F18.0
aF0.5282701121913799
aa(lp2685
F15.0
aF0.41447094370669324
aa(lp2686
F15.0
aF0.37399997902279186
aa(lp2687
F17.0
aF0.3703047399462044
aa(lp2688
F12.0
aF0.07202639584706029
aa(lp2689
F18.0
aF0.7113122440851796
aa(lp2690
F18.0
aF0.7697689953104971
aa(lp2691
F18.0
aF0.7298791325989158
aa(lp2692
F18.0
aF0.5189365025543335
aa(lp2693
F17.0
aF0.1390265789722137
aa(lp2694
F12.0
aF0.10341239148582415
aa(lp2695
F17.0
aF0.4667913114854678
aa(lp2696
F12.0
aF0.12213897164286737
aa(lp2697
F18.0
aF0.7229491707449419
aa(lp2698
F18.0
aF0.5504116610958849
aa(lp2699
F18.0
aF0.5306133894769446
aa(lp2700
F12.0
aF0.09196157734286964
aa(lp2701
F18.0
aF0.6753260514368272
aa(lp2702
F18.0
aF0.5432437850895204
aa(lp2703
F18.0
aF0.7446472132209571
aa(lp2704
F18.0
aF0.37558672601154536
aa(lp2705
F18.0
aF0.733969708673694
aa(lp2706
F17.0
aF0.7212556851796864
aa(lp2707
F18.0
aF0.6461744295303954
aa(lp2708
F12.0
aF0.12713746882610016
aa(lp2709
F18.0
aF0.6049394033603783
aa(lp2710
F18.0
aF0.5772434308589643
aa(lp2711
F18.0
aF0.6602725676574056
aa(lp2712
F18.0
aF0.5240591458686298
aa(lp2713
F18.0
aF0.6689057401033706
aa(lp2714
F18.0
aF0.5974206900208078
aa(lp2715
F15.0
aF0.2979702808332002
aa(lp2716
F18.0
aF0.6705805232359491
aa(lp2717
F18.0
aF0.05911819866268083
aa(lp2718
F18.0
aF0.005035065025070379
aa(lp2719
F12.0
aF0.08591784636587319
aa(lp2720
F18.0
aF0.5326876958295025
aa(lp2721
F18.0
aF0.6001135218103812
aa(lp2722
F18.0
aF0.555714122349701
aa(lp2723
F18.0
aF0.5948806967395186
aa(lp2724
F15.0
aF0.20480943087803394
aa(lp2725
F18.0
aF0.7046338143664403
aa(lp2726
F18.0
aF0.5872469745166156
aa(lp2727
F18.0
aF0.5506778648674995
aa(lp2728
F12.0
aF0.07885468272858351
aa(lp2729
F15.0
aF0.21550220678379928
aa(lp2730
F18.0
aF0.5704569950615572
aa(lp2731
F15.0
aF0.44523671794797476
aa(lp2732
F18.0
aF0.6907960235031672
aa(lp2733
F18.0
aF0.35330075574314246
aa(lp2734
F18.0
aF0.6050575163419718
aa(lp2735
F18.0
aF0.7617715218288854
aa(lp2736
F18.0
aF0.7448511736993991
aa(lp2737
F18.0
aF0.3614659091717894
aa(lp2738
F15.0
aF0.1652384377799988
aa(lp2739
F18.0
aF0.7595633227487887
aa(lp2740
F18.0
aF0.5904958798326998
aa(lp2741
F18.0
aF0.6938945597689412
aa(lp2742
F17.0
aF0.6174714223956758
aa(lp2743
F18.0
aF0.6686945123344972
aa(lp2744
F12.0
aF0.07772963719542163
aa(lp2745
F15.0
aF0.30309502103740465
aa(lp2746
F15.0
aF0.4870392933541917
aa(lp2747
F18.0
aF0.7043351803819012
aa(lp2748
F18.0
aF0.7670613566076088
aa(lp2749
F18.0
aF0.6283131053919356
aa(lp2750
F18.0
aF0.5923275441928845
aa(lp2751
F18.0
aF0.5931124067990274
aa(lp2752
F17.0
aF0.9418509953980876
aa(lp2753
F17.0
aF0.594603311990042
aa(lp2754
F18.0
aF0.7102169714436702
aa(lp2755
F18.0
aF0.7364529788605529
aa(lp2756
F17.0
aF0.6462512527678417
aa(lp2757
F18.0
aF0.08223297420450593
aa(lp2758
F18.0
aF0.6204059815763494
aa(lp2759
F15.0
aF0.28790506325335347
aa(lp2760
F18.0
aF0.6032895971314294
aa(lp2761
F18.0
aF0.5307420901020065
aa(lp2762
F18.0
aF0.3451568512556949
aa(lp2763
F18.0
aF0.7127139886652679
aa(lp2764
F18.0
aF0.5281797946444714
aa(lp2765
F18.0
aF0.6795105687122774
aa(lp2766
F18.0
aF0.03182788591133404
aa(lp2767
F18.0
aF0.7641454347893665
aa(lp2768
F17.0
aF0.30030529132299105
aa(lp2769
F18.0
aF0.5902435883994275
aa(lp2770
F18.0
aF0.03478454455317916
aa(lp2771
F18.0
aF0.7652524317458613
aa(lp2772
F18.0
aF0.3757441269515874
aa(lp2773
F18.0
aF0.7304588123169335
aa(lp2774
F18.0
aF0.5478534807041535
aa(lp2775
F18.0
aF0.07197337625953859
aa(lp2776
F17.0
aF0.59543860706555
aa(lp2777
F18.0
aF0.671085563983012
aa(lp2778
F17.0
aF0.4228878052696064
aa(lp2779
F18.0
aF0.5843817382879445
aa(lp2780
F15.0
aF0.35150659718300703
aa(lp2781
F18.0
aF0.019976015185681022
aa(lp2782
F18.0
aF0.05781408348913005
aa(lp2783
F18.0
aF0.5374183588946254
aa(lp2784
F17.0
aF0.8448464178950478
aa(lp2785
F18.0
aF0.5840533614248796
aa(lp2786
F18.0
aF0.7115396882944528
aa(lp2787
F18.0
aF0.6620374280189337
aa(lp2788
F18.0
aF0.6300635091163896
aa(lp2789
F18.0
aF0.5322351097344317
aa(lp2790
F18.0
aF0.6931299429308346
aa(lp2791
F18.0
aF0.6214595094607669
aa(lp2792
F18.0
aF0.5731506209361603
aa(lp2793
F18.0
aF0.6620557266046865
aa(lp2794
F17.0
aF0.17578213761428574
aa(lp2795
F18.0
aF0.7344021718275817
aa(lp2796
F18.0
aF0.7706529551250135
aa(lp2797
F15.0
aF0.3123897240659741
aa(lp2798
F17.0
aF0.9102964537328039
aa(lp2799
F15.0
aF0.3248163666893564
aa(lp2800
F18.0
aF0.3795481831280592
aa(lp2801
F18.0
aF0.7451177771814035
aa(lp2802
F15.0
aF0.2887599868042153
aa(lp2803
F17.0
aF0.7093024982453664
aa(lp2804
F18.0
aF0.7235844275221562
aa(lp2805
F18.0
aF0.76266836229894
aa(lp2806
F15.0
aF0.39327779509290356
aa(lp2807
F18.0
aF0.361540976624331
aa(lp2808
F15.0
aF0.26081768662757715
aa(lp2809
F18.0
aF0.7028971980610218
aa(lp2810
F18.0
aF0.7666193118605348
aa(lp2811
F15.0
aF0.24745499830964315
aa(lp2812
F18.0
aF0.7190537264714858
aa(lp2813
F18.0
aF0.7577733293344988
aa(lp2814
F18.0
aF0.7436361152666054
aa(lp2815
F18.0
aF0.3784367005850583
aa(lp2816
F18.0
aF0.7283374516137011
aa(lp2817
F18.0
aF0.7585718990618838
aa(lp2818
F18.0
aF0.727544192369188
aa(lp2819
F15.0
aF0.48893190819004956
aa(lp2820
F15.0
aF0.30841707070089414
aa(lp2821
F15.0
aF0.17030289611291374
aa(lp2822
F15.0
aF0.34010168226786686
aa(lp2823
F18.0
aF0.72060484676324
aa(lp2824
F18.0
aF0.7082352807242833
aa(lp2825
F17.0
aF0.6833046520426215
aa(lp2826
F18.0
aF0.7276679614541957
aa(lp2827
F18.0
aF0.34833250285548234
aa(lp2828
F17.0
aF0.2285232987686306
aa(lp2829
F17.0
aF0.6218635311811538
aa(lp2830
F18.0
aF0.7095805028236499
aa(lp2831
F18.0
aF0.7401284602205588
aa(lp2832
F18.0
aF0.7204133112045785
aa(lp2833
F18.0
aF0.7645932933583213
aa(lp2834
F17.0
aF0.8670381753855233
aa(lp2835
F18.0
aF0.368907371952721
aa(lp2836
F18.0
aF0.3641694687467149
aa(lp2837
F18.0
aF0.7457163357740562
aa(lp2838
F18.0
aF0.35468096900581164
aa(lp2839
F18.0
aF0.7363728753500451
aa(lp2840
F18.0
aF0.7579624506235755
aa(lp2841
F18.0
aF0.7042892783438126
aa(lp2842
F18.0
aF0.73962109727174
aa(lp2843
F15.0
aF0.19270910655617757
aa(lp2844
F18.0
aF0.35126998392535874
aa(lp2845
F18.0
aF0.765649366499736
aa(lp2846
F15.0
aF0.27024721122392387
aa(lp2847
F18.0
aF0.3591217424900673
aa(lp2848
F18.0
aF0.7559298403263202
aa(lp2849
F17.0
aF0.43694547899000513
aa(lp2850
F15.0
aF0.3801381452974416
aa(lp2851
F18.0
aF0.7306823122566886
aa(lp2852
F17.0
aF0.12437961633814065
aa(lp2853
F18.0
aF0.7502095038569695
aa(lp2854
F15.0
aF0.33387679782868845
aa(lp2855
F18.0
aF0.3549236140845503
aa(lp2856
F15.0
aF0.48638484852682673
aa(lp2857
F17.0
aF0.6104325978866355
aa(lp2858
F18.0
aF0.7685184087915582
aa(lp2859
F18.0
aF0.7113490978957604
aa(lp2860
F18.0
aF0.7337298236420146
aa(lp2861
F18.0
aF0.747858759451935
aa(lp2862
F18.0
aF0.366461953466168
aa(lp2863
F18.0
aF0.3463006470436278
aa(lp2864
F18.0
aF0.7447362018524432
aa(lp2865
F15.0
aF0.36906967904048726
aa(lp2866
F15.0
aF0.3361550479134968
aa(lp2867
F17.0
aF0.4903769735238101
aa(lp2868
F18.0
aF0.758660326288855
aa(lp2869
F17.0
aF0.8617547310528979
aa(lp2870
F15.0
aF0.4094616805642544
aa(lp2871
F15.0
aF0.3897067882621588
aa(lp2872
F15.0
aF0.489160514847334
aa(lp2873
F18.0
aF0.7323872884585564
aa(lp2874
F18.0
aF0.7128790158556523
aa(lp2875
F17.0
aF0.9858858247969052
aa(lp2876
F18.0
aF0.7275859559583379
aa(lp2877
F18.0
aF0.35175598844549616
aa(lp2878
F18.0
aF0.7520638670174244
aa(lp2879
F15.0
aF0.3756821151372919
aa(lp2880
F18.0
aF0.7563738708090815
aa(lp2881
F18.0
aF0.7596036991477638
aa(lp2882
F18.0
aF0.7099048657909016
aa(lp2883
F18.0
aF0.7381669506124834
aa(lp2884
F18.0
aF0.753693440660776
aa(lp2885
F18.0
aF0.3587081125953894
aa(lp2886
F15.0
aF0.3995561105111298
aa(lp2887
F17.0
aF0.6364089428341201
aa(lp2888
F18.0
aF0.722547645154291
aa(lp2889
F18.0
aF0.765865647903162
aa(lp2890
F17.0
aF0.8070328929846986
aa(lp2891
F17.0
aF0.43080434391030414
aa(lp2892
F18.0
aF0.7100895281722169
aa(lp2893
F18.0
aF0.75645010265811
aa(lp2894
F18.0
aF0.3518735313912156
aa(lp2895
F18.0
aF0.349610600497371
aa(lp2896
F15.0
aF0.309155414179885
aa(lp2897
F18.0
aF0.7194706246171793
aa(lp2898
F18.0
aF0.7377482430723818
aa(lp2899
F18.0
aF0.3430386247820132
aa(lp2900
F18.0
aF0.7143245968065258
aa(lp2901
F15.0
aF0.2916694896100654
aa(lp2902
F18.0
aF0.772608141556403
aa(lp2903
F18.0
aF0.34403189374885385
aa(lp2904
F18.0
aF0.7445215516189386
aa(lp2905
F18.0
aF0.357196190129769
aa(lp2906
F15.0
aF0.22720157399464233
aa(lp2907
F17.0
aF0.21464681327646742
aa(lp2908
F18.0
aF0.7377767396872869
aa(lp2909
F15.0
aF0.2689260194618849
aa(lp2910
F18.0
aF0.3472633466139269
aa(lp2911
F15.0
aF0.40241362401213193
aa(lp2912
F15.0
aF0.4877224883434114
aa(lp2913
F17.0
aF0.21967701704055403
aa(lp2914
F18.0
aF0.3565239034622516
aa(lp2915
F18.0
aF0.34470033208571754
aa(lp2916
F17.0
aF0.8772882109269048
aa(lp2917
F17.0
aF0.49461278706555634
aa(lp2918
F17.0
aF0.6184446029128998
aa(lp2919
F17.0
aF0.2693599315870565
aa(lp2920
F18.0
aF0.3707927636457083
aa(lp2921
F18.0
aF0.3660779242679928
aa(lp2922
F17.0
aF0.5022813768337784
aa(lp2923
F18.0
aF0.35841920986657005
aa(lp2924
F18.0
aF0.3567439686442281
aa(lp2925
F18.0
aF0.3831481800101067
aa(lp2926
F17.0
aF0.005534904501927307
aa(lp2927
F17.0
aF0.06802365081129334
aa(lp2928
F17.0
aF0.8513486300163247
aa(lp2929
F18.0
aF0.36593423479102843
aa(lp2930
F17.0
aF0.34903535008146086
aa(lp2931
F17.0
aF0.8185049929388093
aa(lp2932
F17.0
aF0.9504091489783959
aa(lp2933
F18.0
aF0.34940861178750837
aa(lp2934
F18.0
aF0.3624851568030191
aa(lp2935
F17.0
aF0.3516304055155377
aa(lp2936
F17.0
aF0.035771118195043784
aa(lp2937
F18.0
aF0.3601628732319857
aa(lp2938
F18.0
aF0.3752001907898231
aa(lp2939
F17.0
aF0.44894321149000227
aa(lp2940
F18.0
aF0.35214263100993864
aa(lp2941
F17.0
aF0.5813177696009147
aa(lp2942
F18.0
aF0.35450493233390296
aa(lp2943
F17.0
aF0.6793788525991308
aa(lp2944
F18.0
aF0.34923922241289623
aa(lp2945
F18.0
aF0.3533245849375777
aa(lp2946
F18.0
aF0.3774291885680472
aa(lp2947
F18.0
aF0.3560936742610123
aa(lp2948
F17.0
aF0.3858505557125754
aa(lp2949
F17.0
aF0.14828054676983862
aa(lp2950
F17.0
aF0.0851063099660059
aa(lp2951
F18.0
aF0.35981527077520803
aa(lp2952
F18.0
aF0.37703898004916964
aa(lp2953
F17.0
aF0.6192907891366135
aa(lp2954
F18.0
aF0.352860728118517
aa(lp2955
F17.0
aF0.9728206881733238
aa(lp2956
F17.0
aF0.8885819490938162
aa(lp2957
F18.0
aF0.3784784212266579
aa(lp2958
F17.0
aF0.7679215913740327
aa(lp2959
F18.0
aF0.3678148905880975
aa(lp2960
F18.0
aF0.35615695457273644
aa(lp2961
F18.0
aF0.35722075455906027
aa(lp2962
F18.0
aF0.35046639691975234
aa(lp2963
F18.0
aF0.3513335370926517
aa(lp2964
F18.0
aF0.3544020974332042
aa(lp2965
F18.0
aF0.3530037290745873
aa(lp2966
F18.0
aF0.34514041730504763
aa(lp2967
F18.0
aF0.3790798987356864
aa(lp2968
F18.0
aF0.3620648918518825
aa(lp2969
F18.0
aF0.3524082879195691
aa(lp2970
F18.0
aF0.343783445467421
aa(lp2971
F18.0
aF0.35670400791057805
aa(lp2972
F18.0
aF0.3431735727324258
aa(lp2973
F18.0
aF0.3829853231618699
aa(lp2974
F18.0
aF0.36886050466713743
aa(lp2975
F18.0
aF0.35150824008881304
aa(lp2976
F18.0
aF0.35407488507125
aa(lp2977
F18.0
aF0.35858321133763466
aa(lp2978
F18.0
aF0.36889033333614096
aa(lp2979
F18.0
aF0.34436687025365076
aa(lp2980
F18.0
aF0.36811074025314944
aa(lp2981
F18.0
aF0.35925190945224966
aa(lp2982
F18.0
aF0.3516334676642497
aa(lp2983
F18.0
aF0.36182847589417244
aa(lp2984
F18.0
aF0.3472781760733984
aa(lp2985
F18.0
aF0.3459767699957341
aa(lp2986
F18.0
aF0.347994380926523
aa(lp2987
F18.0
aF0.35696858234316503
aa(lp2988
F18.0
aF0.3557591860295794
aa(lp2989
F18.0
aF0.345874549595487
aa(lp2990
F18.0
aF0.36904734403413225
aa(lp2991
F18.0
aF0.34866803684145
aa(lp2992
F18.0
aF0.3634870765363635
aa(lp2993
F18.0
aF0.36620963943442836
aa(lp2994
F18.0
aF0.34603102085969406
aa(lp2995
F18.0
aF0.3616623883020989
aa(lp2996
F18.0
aF0.35574204320895525
aa(lp2997
F18.0
aF0.36222538287076556
aa(lp2998
F18.0
aF0.35269639373854916
aa(lp2999
F18.0
aF0.3434364678687257
aa(lp3000
F18.0
aF0.3445971556447586
aa(lp3001
F18.0
aF0.3553190920219566
aaa.