(lp0
(lp1
(lp2
(lp3
F0.0
aF3.0
aF1.5
aF0.75
aF1.125
aF1.3125
aF1.40625
aF1.359375
aF1.3359375
aF1.32421875
aF1.318359375
aF1.3154296875
aF1.31689453125
aF1.31762695312
aF1.31726074219
aF1.31707763672
aF1.31698608398
aF1.31694030762
aF1.31691741943
aF1.31690597534
aF1.31691169739
aF1.31691455841
aF1.3169131279
aF1.31691384315
aF1.31691420078
aF1.31691402197
aF1.31691393256
aF1.31691388786
aF1.31691391021
aF1.31691389903
aaa(lp4
(lp5
F0.0
aF0.0
aF0.0
aF0.0
aF0.0
aF0.0
aF0.0
aF0.0
aF0.0
aF0.0
aF0.0
aF0.0
aF0.0
aF0.0
aF0.0
aF0.0
aF0.0
aF0.0
aF0.0
aF0.0
aF0.0
aF0.0
aF0.0
aF0.0
aF0.0
aF0.0
aF0.0
aF0.0
aF0.0
aF0.0
aaa(lp6
(lp7
F0.0
aF3.0
aF1.5
aF0.75
aF1.125
aF0.9375
aF1.03125
aF1.078125
aF1.1015625
aF1.08984375
aF1.083984375
aF1.0869140625
aF1.08837890625
aF1.08764648438
aF1.08728027344
aF1.08746337891
aF1.08737182617
aF1.08741760254
aF1.08739471436
aF1.08740615845
aF1.08741188049
aF1.08741474152
aF1.087413311
aF1.08741402626
aF1.08741438389
aF1.08741420507
aF1.08741429448
aF1.08741433918
aF1.08741436154
aF1.08741435036
aaaa(lp8
(lp9
(lp10
F0.0
aF0.0
aF0.0
aF0.0
aF0.0
aF0.0
aF0.0
aF0.0
aF0.0
aF0.0
aF0.0
aF0.0
aF0.0
aF0.0
aF0.0
aF0.0
aF0.0
aF0.0
aF0.0
aF0.0
aF0.0
aF0.0
aF0.0
aF0.0
aF0.0
aF0.0
aF0.0
aF0.0
aF0.0
aF0.0
aaa(lp11
(lp12
F0.0
aF2.0
aF1.0
aF0.5
aF0.25
aF0.125
aF0.0625
aF0.03125
aF0.015625
aF0.0078125
aF0.01171875
aF0.013671875
aF0.0146484375
aF0.01513671875
aF0.014892578125
aF0.0150146484375
aF0.0149536132812
aF0.0149841308594
aF0.0149993896484
aF0.0149917602539
aF0.0149879455566
aF0.0149898529053
aF0.0149908065796
aF0.0149903297424
aF0.014990568161
aF0.0149906873703
aF0.0149906277657
aF0.0149905979633
aF0.0149906128645
aF0.0149906203151
aaa(lp13
(lp14
F0.0
aF0.0341494231272
aF0.0170747115636
aF0.00853735578179
aF0.0128060336727
aF0.0106716947272
aF0.0117388642
aF0.0122724489363
aF0.0125392413045
aF0.0124058451204
aF0.0123391470284
aF0.0123724960744
aF0.0123891705974
aF0.0123808333359
aF0.0123766647051
aF0.0123787490205
aF0.0123777068628
aF0.0123782279417
aF0.0123779674023
aF0.012378097672
aF0.0123781628068
aF0.0123781953743
aF0.0123781790905
aF0.0123781872324
aF0.0123781913033
aF0.0123781892679
aF0.0123781902856
aF0.0123781907945
aF0.0123781910489
aF0.0123781909217
aaaa(lp15
(lp16
F1.3169138934463263
aa(lp17
F0.022485924884676933
aa(lp18
F1.0874143559485674
aaaF0.017074711563587433
a.