(lp0
(lp1
(lp2
(lp3
F0.0
aF3.0
aF1.5
aF0.75
aF1.125
aF1.3125
aF1.40625
aF1.359375
aF1.3359375
aF1.32421875
aF1.318359375
aF1.3154296875
aF1.31689453125
aF1.31762695312
aF1.31726074219
aF1.31707763672
aF1.31698608398
aF1.31694030762
aF1.31691741943
aF1.31690597534
aF1.31691169739
aF1.31691455841
aF1.3169131279
aF1.31691384315
aF1.31691348553
aF1.31691366434
aF1.31691357493
aF1.31691353023
aF1.31691355258
aF1.31691354141
aaa(lp4
(lp5
F0.0
aF0.0
aF0.0
aF0.0
aF0.0
aF0.0
aF0.0
aF0.0
aF0.0
aF0.0
aF0.0
aF0.0
aF0.0
aF0.0
aF0.0
aF0.0
aF0.0
aF0.0
aF0.0
aF0.0
aF0.0
aF0.0
aF0.0
aF0.0
aF0.0
aF0.0
aF0.0
aF0.0
aF0.0
aF0.0
aaa(lp6
(lp7
F0.0
aF3.0
aF1.5
aF0.75
aF1.125
aF0.9375
aF1.03125
aF1.078125
aF1.1015625
aF1.08984375
aF1.083984375
aF1.0869140625
aF1.08837890625
aF1.08764648438
aF1.08728027344
aF1.08746337891
aF1.08737182617
aF1.08741760254
aF1.08739471436
aF1.08740615845
aF1.08741188049
aF1.08741474152
aF1.087413311
aF1.08741402626
aF1.08741438389
aF1.08741420507
aF1.08741411567
aF1.08741407096
aF1.08741409332
aF1.08741410449
aaaa(lp8
(lp9
(lp10
F0.0
aF0.0
aF0.0
aF0.0
aF0.0
aF0.0
aF0.0
aF0.0
aF0.0
aF0.0
aF0.0
aF0.0
aF0.0
aF0.0
aF0.0
aF0.0
aF0.0
aF0.0
aF0.0
aF0.0
aF0.0
aF0.0
aF0.0
aF0.0
aF0.0
aF0.0
aF0.0
aF0.0
aF0.0
aF0.0
aaa(lp11
(lp12
F0.0
aF2.0
aF1.0
aF0.5
aF0.25
aF0.125
aF0.0625
aF0.03125
aF0.015625
aF0.0078125
aF0.01171875
aF0.013671875
aF0.0146484375
aF0.01513671875
aF0.014892578125
aF0.0150146484375
aF0.0149536132812
aF0.0149841308594
aF0.0149993896484
aF0.0149917602539
aF0.0149879455566
aF0.0149898529053
aF0.0149908065796
aF0.0149903297424
aF0.014990568161
aF0.0149906873703
aF0.0149906277657
aF0.0149905979633
aF0.0149906128645
aF0.0149906203151
aaa(lp13
(lp14
F0.0
aF0.0341494321112
aF0.0170747160556
aF0.00853735802779
aF0.0128060370417
aF0.0106716975347
aF0.0117388672882
aF0.0122724521649
aF0.0125392446033
aF0.0124058483841
aF0.0123391502745
aF0.0123724993293
aF0.0123891738567
aF0.012380836593
aF0.0123766679612
aF0.0123787522771
aF0.0123777101191
aF0.0123782311981
aF0.0123779706586
aF0.0123781009284
aF0.0123781660633
aF0.0123781986307
aF0.012378182347
aF0.0123781904888
aF0.0123781945598
aF0.0123781925243
aF0.0123781915066
aF0.0123781909977
aF0.0123781912521
aF0.0123781913794
aaaa(lp15
(lp16
F1.3169135469943285
aa(lp17
F0.022485924884676933
aa(lp18
F1.0874140989035368
aaaF0.017074716055581567
a.