(lp0
(lp1
(lp2
(lp3
(lp4
F0.0660104751586914
aa(lp5
F0.04215717315673828
aa(lp6
F0.04261493682861328
aF0.10141658782958984
aF0.048989295959472656
aF0.07631969451904297
aF0.03058147430419922
aF0.20836544036865234
aF0.033652305603027344
aF0.2897939682006836
aF0.057921409606933594
aF0.058531761169433594
aF0.07140064239501953
aF0.04882526397705078
aF0.037703514099121094
aF0.1763906478881836
aF0.038140296936035156
aF0.1125497817993164
aa(lp7
F0.02820873260498047
aF0.12300395965576172
aF0.03516674041748047
aF0.06342601776123047
aa(lp8
F0.052351951599121094
aF0.07685184478759766
aF0.056916236877441406
aF0.0686044692993164
aF0.041749000549316406
aF0.1449594497680664
aF0.044226646423339844
aF0.11914348602294922
aa(lp9
F0.15720272064208984
aF0.2359018325805664
aaa(lp10
(lp11
F0.37113475799560547
aa(lp12
F1.9999990463256836
aa(lp13
F0.1936044692993164
aF0.2776193618774414
aF0.13081073760986328
aF1.1525030136108398
aF1.201308250427246
aF0.1051645278930664
aF0.3732137680053711
aF0.1435842514038086
aF0.18937397003173828
aF0.3422861099243164
aF0.12197017669677734
aF1.9999990463256836
aF0.848292350769043
aF0.1125497817993164
aF0.3195810317993164
aF0.15713024139404297
aa(lp14
F1.9999990463256836
aaa(lp15
(lp16
F0.0825185775756836
aF0.07473278045654297
aa(lp17
F0.0801248550415039
aF0.4242563247680664
aF0.0937662124633789
aF0.6629877090454102
aF0.0723104476928711
aF0.2735166549682617
aF0.08269405364990234
aF0.34087657928466797
aa(lp18
F0.19003582000732422
aF0.1226816177368164
aF0.2085123062133789
aF0.13032817840576172
aa(lp19
F0.18086719512939453
aa(lp20
F0.04488849639892578
aF0.31845569610595703
aF0.052765846252441406
aF0.15178394317626953
aF0.059081077575683594
aF0.10485553741455078
aF0.07396221160888672
aF0.07557201385498047
aa(lp21
F0.06494998931884766
aF0.06346797943115234
aaa(lp22
(lp23
F1.9250516891479492
aF1.9999990463256836
aa(lp24
F1.0395994186401367
aF0.8461675643920898
aaa(lp25
(lp26
F0.5656194686889648
aa(lp27
F0.03375720977783203
aa(lp28
F0.10845088958740234
aaa(lp29
(lp30
F0.17859172821044922
aaa(lp31
(lp32
F0.14923381805419922
aa(lp33
F0.13726520538330078
aa(lp34
F0.06737995147705078
aa(lp35
F0.6637887954711914
aaa(lp36
(lp37
F0.0995645523071289
aaa(lp38
(lp39
F0.035613059997558594
aa(lp40
F0.11755084991455078
aa(lp41
F0.13338375091552734
aa(lp42
F0.02334308624267578
aa(lp43
F0.048859596252441406
aa(lp44
F0.023407936096191406
aaa(lp45
(lp46
F1.9999990463256836
aa(lp47
F0.017249107360839844
aa(lp48
F0.02029705047607422
aa(lp49
F0.02218914031982422
aaa(lp50
(lp51
F1.9999990463256836
aaa(lp52
(lp53
F1.1474847793579102
aa(lp54
F0.2931947708129883
aaa(lp55
(lp56
F0.07876300811767578
aa(lp57
F0.06744670867919922
aF0.17653369903564453
aaa(lp58
(lp59
F1.9999990463256836
aa(lp60
F1.9999990463256836
aa(lp61
F1.9999990463256836
aa(lp62
F1.9999990463256836
aa(lp63
F1.9999990463256836
aa(lp64
F1.9999990463256836
aaa(lp65
(lp66
F0.4367666244506836
aa(lp67
F0.21033573150634766
aa(lp68
F0.2080087661743164
aaaa(lp69
(lp70
(lp71
F0.054154396057128906
aa(lp72
F0.032790184020996094
aa(lp73
F0.034043312072753906
aF0.09734630584716797
aF0.03922748565673828
aF0.07043933868408203
aF0.025391578674316406
aF1.024287223815918
aF0.02599811553955078
aF0.4970216751098633
aF0.04758930206298828
aF0.05684375762939453
aF0.06007862091064453
aF0.04615497589111328
aF0.03050708770751953
aF0.17530345916748047
aF0.035401344299316406
aF0.10465145111083984
aa(lp74
F0.023247718811035156
aF0.12883663177490234
aF0.027197837829589844
aF0.059082984924316406
aa(lp75
F0.04309558868408203
aF0.07399654388427734
aF0.047394752502441406
aF0.06493854522705078
aF0.031249046325683594
aF0.14037418365478516
aF0.035193443298339844
aF0.1118154525756836
aa(lp76
F0.13028621673583984
aF0.23004436492919922
aaa(lp77
(lp78
F0.3735799789428711
aa(lp79
F1.9999990463256836
aa(lp80
F0.1761159896850586
aF0.2314462661743164
aF0.1172800064086914
aF0.9022016525268555
aF0.7412424087524414
aF0.10468387603759766
aF0.2509737014770508
aF0.14527225494384766
aF0.15666484832763672
aF0.27634334564208984
aF0.10895252227783203
aF1.9999990463256836
aF0.5312528610229492
aF0.1123342514038086
aF0.21608829498291016
aF0.15970516204833984
aa(lp81
F1.9999990463256836
aaa(lp82
(lp83
F0.0685110092163086
aF0.061972618103027344
aa(lp84
F0.0670461654663086
aF1.056778907775879
aF0.07331371307373047
aF0.7685556411743164
aF0.06070232391357422
aF0.3552217483520508
aF0.0686044692993164
aF1.9102792739868164
aa(lp85
F0.19095706939697266
aF0.1148691177368164
aF0.2103109359741211
aF0.1220712661743164
aa(lp86
F0.14565181732177734
aa(lp87
F0.036164283752441406
aF0.33353710174560547
aF0.041022300720214844
aF0.13718509674072266
aF0.045821189880371094
aF0.10501956939697266
aF0.058241844177246094
aF0.0716695785522461
aa(lp88
F0.053750038146972656
aF0.050528526306152344
aaa(lp89
(lp90
F1.9999990463256836
aF1.9999990463256836
aa(lp91
F1.9999990463256836
aF1.9999990463256836
aaa(lp92
(lp93
F0.6561861038208008
aa(lp94
F0.026244163513183594
aa(lp95
F0.1020517349243164
aaa(lp96
(lp97
F0.1991109848022461
aaa(lp98
(lp99
F0.15267086029052734
aa(lp100
F0.13781070709228516
aa(lp101
F0.06934642791748047
aa(lp102
F1.1212797164916992
aaa(lp103
(lp104
F0.11100292205810547
aaa(lp105
(lp106
F0.1317911148071289
aa(lp107
F0.32979297637939453
aa(lp108
F0.2636861801147461
aa(lp109
F0.08129405975341797
aa(lp110
F0.08105754852294922
aa(lp111
F0.04411029815673828
aaa(lp112
(lp113
F1.9999990463256836
aa(lp114
F0.05926227569580078
aa(lp115
F0.07157611846923828
aa(lp116
F0.0776376724243164
aaa(lp117
(lp118
F1.9999990463256836
aaa(lp119
(lp120
F1.320328712463379
aa(lp121
F0.4019784927368164
aaa(lp122
(lp123
F0.18531131744384766
aa(lp124
F0.16434192657470703
aF0.4341554641723633
aaa(lp125
(lp126
F1.9999990463256836
aa(lp127
F1.9999990463256836
aa(lp128
F1.9999990463256836
aa(lp129
F1.9999990463256836
aa(lp130
F1.9999990463256836
aa(lp131
F1.9999990463256836
aaa(lp132
(lp133
F0.4167757034301758
aa(lp134
F0.19654178619384766
aa(lp135
F0.19323444366455078
aaaa(lp136
(lp137
(lp138
F0.056639671325683594
aa(lp139
F0.03671741485595703
aa(lp140
F0.036810874938964844
aF0.06604671478271484
aF0.04513263702392578
aF0.042778968811035156
aF0.027260780334472656
aF0.8847723007202148
aF0.031678199768066406
aF0.20073795318603516
aF0.04885578155517578
aF0.036316871643066406
aF0.06567668914794922
aF0.02820110321044922
aF0.033257484436035156
aF0.11289119720458984
aF0.04004955291748047
aF0.060057640075683594
aa(lp141
F0.023688316345214844
aF0.10303211212158203
aF0.032769203186035156
aF0.03515148162841797
aa(lp142
F0.039061546325683594
aF0.047331809997558594
aF0.05091381072998047
aF0.040383338928222656
aF0.036828041076660156
aF0.0903310775756836
aF0.04031658172607422
aF0.06804561614990234
aa(lp143
F0.13868045806884766
aF0.14258098602294922
aaa(lp144
(lp145
F0.3927621841430664
aa(lp146
F1.9999990463256836
aa(lp147
F0.2626619338989258
aF0.1266775131225586
aF0.16400623321533203
aF0.23919391632080078
aF0.4995546340942383
aF0.07361507415771484
aF0.2263326644897461
aF0.1044015884399414
aF0.22414684295654297
aF0.15820026397705078
aF0.15059566497802734
aF0.3859853744506836
aF0.3959989547729492
aF0.07807064056396484
aF0.2054147720336914
aF0.11626529693603516
aa(lp148
F1.9999990463256836
aaa(lp149
(lp150
F0.0692453384399414
aF0.06325244903564453
aa(lp151
F0.06823253631591797
aF0.618168830871582
aF0.0876779556274414
aF0.500178337097168
aF0.06243419647216797
aF0.3243875503540039
aF0.07814311981201172
aF1.1875028610229492
aa(lp152
F0.13848590850830078
aF0.06949710845947266
aF0.15278148651123047
aF0.0733938217163086
aa(lp153
F0.13866710662841797
aa(lp154
F0.038193702697753906
aF0.2936220169067383
aF0.04835033416748047
aF0.0821828842163086
aF0.049391746520996094
aF0.0693197250366211
aF0.06713390350341797
aF0.04179668426513672
aa(lp155
F0.05588245391845703
aF0.05483531951904297
aaa(lp156
(lp157
F1.9999990463256836
aF1.9999990463256836
aa(lp158
F1.9999990463256836
aF1.9999990463256836
aaa(lp159
(lp160
F1.9999990463256836
aa(lp161
F0.030272483825683594
aa(lp162
F0.11136150360107422
aaa(lp163
(lp164
F0.1171865463256836
aaa(lp165
(lp166
F0.17648792266845703
aa(lp167
F0.18133258819580078
aa(lp168
F0.07970714569091797
aa(lp169
F1.4183931350708008
aaa(lp170
(lp171
F0.0664663314819336
aaa(lp172
(lp173
F0.1360025405883789
aa(lp174
F0.7789468765258789
aa(lp175
F0.07712459564208984
aa(lp176
F0.12462329864501953
aa(lp177
F0.18446063995361328
aa(lp178
F0.10576152801513672
aaa(lp179
(lp180
F1.9999990463256836
aa(lp181
F0.09099674224853516
aa(lp182
F0.10931682586669922
aa(lp183
F0.1201467514038086
aaa(lp184
(lp185
F1.9999990463256836
aaa(lp186
(lp187
F0.9765939712524414
aa(lp188
F0.5546255111694336
aaa(lp189
(lp190
F0.1851358413696289
aa(lp191
F0.1641702651977539
aF0.43369197845458984
aaa(lp192
(lp193
F1.9999990463256836
aa(lp194
F1.9999990463256836
aa(lp195
F1.9999990463256836
aa(lp196
F1.9999990463256836
aa(lp197
F1.9999990463256836
aa(lp198
F1.9999990463256836
aaa(lp199
(lp200
F0.2580709457397461
aa(lp201
F0.32033443450927734
aa(lp202
F0.3054170608520508
aaaa(lp203
(lp204
(lp205
F0.05229473114013672
aa(lp206
F0.033110618591308594
aa(lp207
F0.033478736877441406
aF0.10953807830810547
aF0.040802955627441406
aF0.07291316986083984
aF0.02416706085205078
aF0.8554563522338867
aF0.027586936950683594
aF0.3250913619995117
aF0.044913291931152344
aF0.060484886169433594
aF0.060433387756347656
aF0.05156421661376953
aF0.02966022491455078
aF0.17972660064697266
aF0.03537464141845703
aF0.09850597381591797
aa(lp208
F0.02151775360107422
aF0.15585803985595703
aF0.029297828674316406
aF0.0625009536743164
aa(lp209
F0.040503501892089844
aF0.0801706314086914
aF0.04608440399169922
aF0.0686044692993164
aF0.032898902893066406
aF0.14797496795654297
aF0.03577136993408203
aF0.1134653091430664
aa(lp210
F0.1266336441040039
aF0.2351694107055664
aaa(lp211
(lp212
F0.32349300384521484
aa(lp213
F1.9998750686645508
aa(lp214
F0.2137441635131836
aF0.20269298553466797
aF0.14127254486083984
aF0.38866329193115234
aF0.4832773208618164
aF0.12463092803955078
aF0.2239999771118164
aF0.18464374542236328
aF0.18238162994384766
aF0.23577022552490234
aF0.12253093719482422
aF0.4920339584350586
aF0.3649301528930664
aF0.12890338897705078
aF0.1849355697631836
aF0.1919851303100586
aa(lp215
F1.9999990463256836
aaa(lp216
(lp217
F0.062081336975097656
aF0.05637836456298828
aa(lp218
F0.060538291931152344
aF0.5399141311645508
aF0.07689571380615234
aF0.748927116394043
aF0.056069374084472656
aF0.2802724838256836
aF0.06840801239013672
aF1.411452293395996
aa(lp219
F0.22445392608642578
aF0.11910724639892578
aF0.2629518508911133
aF0.12129878997802734
aa(lp220
F0.13077259063720703
aa(lp221
F0.033179283142089844
aF0.4853696823120117
aF0.040404319763183594
aF0.1485605239868164
aF0.04296588897705078
aF0.1230459213256836
aF0.05799579620361328
aF0.06986522674560547
aa(lp222
F0.050408363342285156
aF0.04857921600341797
aaa(lp223
(lp224
F1.9999990463256836
aF1.9999990463256836
aa(lp225
F1.9999990463256836
aF1.9999990463256836
aaa(lp226
(lp227
F1.9999990463256836
aa(lp228
F0.026558876037597656
aa(lp229
F0.09794330596923828
aaa(lp230
(lp231
F0.18775653839111328
aaa(lp232
(lp233
F0.1308584213256836
aa(lp234
F0.14686107635498047
aa(lp235
F0.06494617462158203
aa(lp236
F1.4105405807495117
aaa(lp237
(lp238
F0.0885610580444336
aaa(lp239
(lp240
F0.2172842025756836
aa(lp241
F0.7616415023803711
aa(lp242
F0.0742177963256836
aa(lp243
F0.12462329864501953
aa(lp244
F0.18446063995361328
aa(lp245
F0.10576152801513672
aaa(lp246
(lp247
F1.9999990463256836
aa(lp248
F0.09099674224853516
aa(lp249
F0.10931682586669922
aa(lp250
F0.1201467514038086
aaa(lp251
(lp252
F1.9999990463256836
aaa(lp253
(lp254
F0.8916101455688477
aa(lp255
F0.522456169128418
aaa(lp256
(lp257
F0.1851358413696289
aa(lp258
F0.1641702651977539
aF0.43369197845458984
aaa(lp259
(lp260
F1.9999990463256836
aa(lp261
F1.9999990463256836
aa(lp262
F1.9999990463256836
aa(lp263
F1.9999990463256836
aa(lp264
F1.9999990463256836
aa(lp265
F1.9999990463256836
aaa(lp266
(lp267
F0.43263721466064453
aa(lp268
F0.2519540786743164
aa(lp269
F0.2441396713256836
aaaa(lp270
(lp271
(lp272
F0.060814857482910156
aa(lp273
F0.039002418518066406
aa(lp274
F0.038361549377441406
aF0.1093740463256836
aF0.047722816467285156
aF0.0717153549194336
aF0.027892112731933594
aF0.6921758651733398
aF0.032395362854003906
aF0.3067178726196289
aF0.052123069763183594
aF0.058602333068847656
aF0.07140254974365234
aF0.047379493713378906
aF0.03414630889892578
aF0.15798473358154297
aF0.041260719299316406
aF0.08960247039794922
aa(lp275
F0.024422645568847656
aF0.14287662506103516
aF0.033881187438964844
aF0.057221412658691406
aa(lp276
F0.046851158142089844
aF0.0814065933227539
aF0.05288982391357422
aF0.06913089752197266
aF0.037909507751464844
aF0.1384592056274414
aF0.041495323181152344
aF0.10375499725341797
aa(lp277
F0.1464986801147461
aF0.2187509536743164
aaa(lp278
(lp279
F0.4013681411743164
aa(lp280
F1.9999990463256836
aa(lp281
F0.29059886932373047
aF0.18461322784423828
aF0.1716928482055664
aF0.3425283432006836
aF0.584101676940918
aF0.1090078353881836
aF0.22721385955810547
aF0.1592111587524414
aF0.2480630874633789
aF0.2122812271118164
aF0.15734004974365234
aF0.49312877655029297
aF0.45412158966064453
aF0.1250009536743164
aF0.20602130889892578
aF0.17143917083740234
aa(lp282
F1.9999990463256836
aaa(lp283
(lp284
F0.07104015350341797
aF0.0649423599243164
aa(lp285
F0.0706319808959961
aF0.639887809753418
aF0.09000301361083984
aF0.6001081466674805
aF0.06434917449951172
aF0.3243703842163086
aF0.0802316665649414
aF1.4683618545532227
aa(lp286
F0.19814586639404297
aF0.1113290786743164
aF0.22378253936767578
aF0.11837482452392578
aa(lp287
F0.15268421173095703
aa(lp288
F0.039572715759277344
aF0.4530153274536133
aF0.050095558166503906
aF0.13723087310791016
aF0.051886558532714844
aF0.11310863494873047
aF0.07205486297607422
aF0.0735635757446289
aa(lp289
F0.057242393493652344
aF0.056687355041503906
aaa(lp290
(lp291
F1.9999990463256836
aF1.9999990463256836
aa(lp292
F1.9999990463256836
aF1.9999990463256836
aaa(lp293
(lp294
F1.9999990463256836
aa(lp295
F0.03112316131591797
aa(lp296
F0.11236286163330078
aaa(lp297
(lp298
F0.15793323516845703
aaa(lp299
(lp300
F0.15942668914794922
aa(lp301
F0.14980411529541016
aa(lp302
F0.07259464263916016
aa(lp303
F1.3565244674682617
aaa(lp304
(lp305
F0.0887918472290039
aaa(lp306
(lp307
F0.1543130874633789
aa(lp308
F0.5912389755249023
aa(lp309
F0.07421588897705078
aa(lp310
F0.12462329864501953
aa(lp311
F0.18446063995361328
aa(lp312
F0.10576152801513672
aaa(lp313
(lp314
F1.9999990463256836
aa(lp315
F0.09099674224853516
aa(lp316
F0.10931682586669922
aa(lp317
F0.1201467514038086
aaa(lp318
(lp319
F1.9999990463256836
aaa(lp320
(lp321
F1.5048761367797852
aa(lp322
F0.4843759536743164
aaa(lp323
(lp324
F0.1851358413696289
aa(lp325
F0.1641702651977539
aF0.43369197845458984
aaa(lp326
(lp327
F1.9999990463256836
aa(lp328
F1.9999990463256836
aa(lp329
F1.9999990463256836
aa(lp330
F1.9999990463256836
aa(lp331
F1.9999990463256836
aa(lp332
F1.9999990463256836
aaa(lp333
(lp334
F0.39046382904052734
aa(lp335
F0.3406858444213867
aa(lp336
F0.3330068588256836
aaaa(lp337
(lp338
(lp339
F0.05061626434326172
aa(lp340
F0.03309345245361328
aa(lp341
F0.033080101013183594
aF0.1354970932006836
aF0.03851032257080078
aF0.09032154083251953
aF0.024880409240722656
aF0.557826042175293
aF0.02801799774169922
aF0.4961729049682617
aF0.04586315155029297
aF0.07626819610595703
aF0.058594703674316406
aF0.058838844299316406
aF0.030655860900878906
aF0.23426532745361328
aF0.03650379180908203
aF0.12932300567626953
aa(lp342
F0.022017478942871094
aF0.20462512969970703
aF0.029618263244628906
aF0.07591915130615234
aa(lp343
F0.04146862030029297
aF0.09985065460205078
aF0.044882774353027344
aF0.08509540557861328
aF0.03378582000732422
aF0.19530582427978516
aF0.036803245544433594
aF0.14873218536376953
aa(lp344
F0.1274404525756836
aF0.29300594329833984
aaa(lp345
(lp346
F0.3056001663208008
aa(lp347
F1.9999990463256836
aa(lp348
F0.20701885223388672
aF0.24351215362548828
aF0.12604236602783203
aF0.5395898818969727
aF0.558415412902832
aF0.16123676300048828
aF0.2323751449584961
aF0.2337636947631836
aF0.1906290054321289
aF0.28214168548583984
aF0.1223306655883789
aF0.6925039291381836
aF0.41351985931396484
aF0.1750802993774414
aF0.20240116119384766
aF0.2682981491088867
aa(lp349
F1.9999990463256836
aaa(lp350
(lp351
F0.06383419036865234
aF0.05847644805908203
aa(lp352
F0.0625753402709961
aF0.5251760482788086
aF0.07516193389892578
aF0.9801034927368164
aF0.05724048614501953
aF0.2681760787963867
aF0.06870555877685547
aF1.3339452743530273
aa(lp353
F0.2843351364135742
aF0.15074443817138672
aF0.3135557174682617
aF0.15935611724853516
aa(lp354
F0.13277721405029297
aa(lp355
F0.03510761260986328
aF0.5851163864135742
aF0.042778968811035156
aF0.1806650161743164
aF0.04591083526611328
aF0.1479501724243164
aF0.06178760528564453
aF0.09106922149658203
aa(lp356
F0.051705360412597656
aF0.05099964141845703
aaa(lp357
(lp358
F1.9999990463256836
aF1.9999990463256836
aa(lp359
F1.9999990463256836
aF1.9999990463256836
aaa(lp360
(lp361
F1.2507333755493164
aa(lp362
F0.02709674835205078
aa(lp363
F0.09591197967529297
aaa(lp364
(lp365
F0.21664142608642578
aaa(lp366
(lp367
F0.14379405975341797
aa(lp368
F0.15091800689697266
aa(lp369
F0.06544780731201172
aa(lp370
F1.1943349838256836
aaa(lp371
(lp372
F0.12091922760009766
aaa(lp373
(lp374
F0.22792911529541016
aa(lp375
F0.5350103378295898
aa(lp376
F0.06839275360107422
aa(lp377
F0.12462329864501953
aa(lp378
F0.18446063995361328
aa(lp379
F0.10576152801513672
aaa(lp380
(lp381
F1.9999990463256836
aa(lp382
F0.09099674224853516
aa(lp383
F0.10931682586669922
aa(lp384
F0.1201467514038086
aaa(lp385
(lp386
F1.9999990463256836
aaa(lp387
(lp388
F0.9225873947143555
aa(lp389
F0.4576425552368164
aaa(lp390
(lp391
F0.1794424057006836
aa(lp392
F0.1641702651977539
aF0.4122762680053711
aaa(lp393
(lp394
F1.9999990463256836
aa(lp395
F1.9999990463256836
aa(lp396
F1.9999990463256836
aa(lp397
F1.9999990463256836
aa(lp398
F1.9999990463256836
aa(lp399
F1.9999990463256836
aaa(lp400
(lp401
F0.5924978256225586
aa(lp402
F0.2290658950805664
aa(lp403
F0.22569561004638672
aaaa(lp404
(lp405
(lp406
F0.05176067352294922
aa(lp407
F0.03006267547607422
aa(lp408
F0.031134605407714844
aF0.12290668487548828
aF0.038292884826660156
aF0.11872386932373047
aF0.027344703674316406
aF0.2810392379760742
aF0.02522563934326172
aF0.39182567596435547
aF0.041283607482910156
aF0.0714120864868164
aF0.06717777252197266
aF0.054680824279785156
aF0.026144981384277344
aF0.21585559844970703
aF0.031172752380371094
aF0.12894535064697266
aa(lp409
F0.018065452575683594
aF0.10907268524169922
aF0.027213096618652344
aF0.0731973648071289
aa(lp410
F0.035904884338378906
aF0.13426876068115234
aF0.04712390899658203
aF0.07953929901123047
aF0.02984333038330078
aF0.18064022064208984
aF0.033186912536621094
aF0.1484060287475586
aa(lp411
F0.12697124481201172
aF0.2793302536010742
aaa(lp412
(lp413
F0.33298587799072266
aa(lp414
F1.5893468856811523
aa(lp415
F0.22070789337158203
aF0.2638101577758789
aF0.1388559341430664
aF0.30797863006591797
aF0.6184492111206055
aF0.15565013885498047
aF0.21857357025146484
aF0.2572183609008789
aF0.2070474624633789
aF0.2734365463256836
aF0.12499713897705078
aF0.37573719024658203
aF0.3730459213256836
aF0.16866016387939453
aF0.16404438018798828
aF0.2880868911743164
aa(lp416
F1.9999990463256836
aaa(lp417
(lp418
F0.05716991424560547
aF0.0628671646118164
aa(lp419
F0.056395530700683594
aF0.49768543243408203
aF0.0864267349243164
aF0.5806112289428711
aF0.058823585510253906
aF0.31152820587158203
aF0.07312488555908203
aF0.6775960922241211
aa(lp420
F0.2009744644165039
aF0.1469869613647461
aF0.22255802154541016
aF0.15265560150146484
aa(lp421
F0.1111440658569336
aa(lp422
F0.031836509704589844
aF0.2655973434448242
aF0.046875953674316406
aF0.1634511947631836
aF0.037735939025878906
aF0.14316844940185547
aF0.05867481231689453
aF0.08571338653564453
aa(lp423
F0.051766395568847656
aF0.04290485382080078
aaa(lp424
(lp425
F1.9999990463256836
aF1.9999990463256836
aa(lp426
F0.6406526565551758
aF1.9999990463256836
aaa(lp427
(lp428
F1.9999990463256836
aa(lp429
F0.024764060974121094
aa(lp430
F0.060730934143066406
aaa(lp431
(lp432
F0.21119403839111328
aaa(lp433
(lp434
F0.12034320831298828
aa(lp435
F0.1187143325805664
aa(lp436
F0.054038047790527344
aa(lp437
F0.9296846389770508
aaa(lp438
(lp439
F0.1171102523803711
aaa(lp440
(lp441
F0.15625858306884766
aa(lp442
F0.3613271713256836
aa(lp443
F0.0673074722290039
aa(lp444
F0.1113290786743164
aa(lp445
F0.18446063995361328
aa(lp446
F0.08649349212646484
aaa(lp447
(lp448
F1.7625722885131836
aa(lp449
F0.09099674224853516
aa(lp450
F0.09790897369384766
aa(lp451
F0.0981454849243164
aaa(lp452
(lp453
F1.9999990463256836
aaa(lp454
(lp455
F0.7695322036743164
aa(lp456
F0.4475717544555664
aaa(lp457
(lp458
F0.1796865463256836
aa(lp459
F0.1641702651977539
aF0.4163064956665039
aaa(lp460
(lp461
F1.9999990463256836
aa(lp462
F1.9999990463256836
aa(lp463
F1.9999990463256836
aa(lp464
F1.9999990463256836
aa(lp465
F1.9999990463256836
aa(lp466
F1.9999990463256836
aaa(lp467
(lp468
F0.5312414169311523
aa(lp469
F0.25220394134521484
aa(lp470
F0.2512216567993164
aaaaa(lp471
(lp472
(lp473
(lp474
S'offma_Ca_HVA'
p475
aS'offmb_Ca_HVA'
p476
aa(lp477
S'offha_Ca_HVA'
p478
aS'offhb_Ca_HVA'
p479
aaaa(lp480
(lp481
(lp482
g475
ag476
aa(lp483
g478
ag479
aaaa(lp484
(lp485
(lp486
g475
ag476
aa(lp487
S'sloma_Ca_HVA'
p488
aS'slomb_Ca_HVA'
p489
aa(lp490
g478
ag479
aa(lp491
S'sloha_Ca_HVA'
p492
aS'slohb_Ca_HVA'
p493
aaag485
ag485
ag485
ag485
ag485
ag485
ag485
ag485
ag485
ag485
ag485
ag485
ag485
ag485
ag485
aa(lp494
(lp495
(lp496
g475
ag476
aa(lp497
g488
ag489
aaag495
ag495
ag495
aa(lp498
(lp499
(lp500
g475
ag476
aa(lp501
g488
ag489
aa(lp502
g478
ag479
aaag499
ag499
ag499
ag499
ag499
ag499
ag499
aa(lp503
(lp504
(lp505
g475
ag476
aa(lp506
g478
ag479
aa(lp507
g492
ag493
aaag504
aa(lp508
(lp509
(lp510
g478
ag479
aa(lp511
g492
ag493
aaaa(lp512
(lp513
(lp514
S'tauha_Ca_HVA'
p515
aS'tauhb_Ca_HVA'
p516
aaaa(lp517
(lp518
(lp519
g475
ag476
aa(lp520
g478
ag479
aa(lp521
S'tauma_Ca_HVA'
p522
aS'taumb_Ca_HVA'
p523
aa(lp524
g515
ag516
aaag518
ag518
ag518
ag518
ag518
ag518
ag518
ag518
ag518
ag518
ag518
ag518
ag518
ag518
ag518
aa(lp525
(lp526
(lp527
g515
ag516
aaaa(lp528
(lp529
(lp530
g475
ag476
aa(lp531
g488
ag489
aa(lp532
g478
ag479
aa(lp533
g492
ag493
aa(lp534
g515
ag516
aaag529
aa(lp535
(lp536
(lp537
g475
ag476
aa(lp538
g488
ag489
aa(lp539
g478
ag479
aa(lp540
g492
ag493
aa(lp541
g515
ag516
aaag536
ag536
ag536
ag536
ag536
ag536
ag536
aa(lp542
(lp543
(lp544
g475
ag476
aa(lp545
g488
ag489
aa(lp546
g515
ag516
aaag543
ag543
ag543
aa(lp547
(lp548
(lp549
g475
ag476
aa(lp550
g488
ag489
aa(lp551
g478
ag479
aa(lp552
g492
ag493
aaaa(lp553
(lp554
(lp555
g475
ag476
aa(lp556
g488
ag489
aa(lp557
g478
ag479
aa(lp558
g492
ag493
aa(lp559
g515
ag516
aaag554
ag554
ag554
ag554
ag554
ag554
ag554
aa(lp560
(lp561
(lp562
g475
ag476
aa(lp563
g488
ag489
aa(lp564
g515
ag516
aaag561
aa(lp565
(lp566
S'offma_Ca_LVAst'
p567
aS'offha_Ca_LVAst'
p568
a(lp569
S'taummin_Ca_LVAst'
p570
aS'taumdiff_Ca_LVAst'
p571
aa(lp572
S'tauhmin_Ca_LVAst'
p573
aS'tauhdiff_Ca_LVAst'
p574
aaag566
aa(lp575
(lp576
g567
aS'sloma_Ca_LVAst'
p577
ag568
aS'sloha_Ca_LVAst'
p578
a(lp579
g570
ag571
aa(lp580
g573
ag574
aaag576
aa(lp581
(lp582
(lp583
g522
ag523
aaaa(lp584
(lp585
(lp586
g475
ag476
aa(lp587
g488
ag489
aa(lp588
g522
ag523
aaaa(lp589
(lp590
(lp591
g475
ag476
aa(lp592
g488
ag489
aa(lp593
g478
ag479
aa(lp594
g492
ag493
aaaa(lp595
(lp596
S'gamma_CaDynamics_E2'
p597
aaa(lp598
(lp599
S'decay_CaDynamics_E2'
p600
aaa(lp601
(lp602
g600
aS'minCai_CaDynamics_E2'
p603
aaa(lp604
(lp605
g600
aaa(lp606
(lp607
g603
aaa(lp608
(lp609
g597
aaa(lp610
(lp611
S'offm_NaTa_t'
p612
aS'offh_NaTa_t'
p613
aS'slom_NaTa_t'
p614
aS'sloh_NaTa_t'
p615
aaa(lp616
(lp617
g612
ag613
ag614
ag615
aaa(lp618
(lp619
g612
ag613
ag614
ag615
a(lp620
S'tauha_NaTa_t'
p621
aS'tauhb_NaTa_t'
p622
aaaa(lp623
(lp624
g612
ag613
ag614
ag615
a(lp625
g621
ag622
aaaa(lp626
(lp627
g612
ag614
a(lp628
g621
ag622
aaaa(lp629
(lp630
g612
ag613
ag614
ag615
aaa(lp631
(lp632
(lp633
S'offh_Nap_Et2'
p634
aS'offha_Nap_Et2'
p635
aS'offhb_Nap_Et2'
p636
aaaa(lp637
(lp638
(lp639
g634
ag635
ag636
aaS'sloh_Nap_Et2'
p640
ag612
ag613
ag615
aaa(lp641
(lp642
g612
ag613
aaa(lp643
(lp644
g612
ag613
aaa(lp645
(lp646
(lp647
S'taummin_K_Pst'
p648
aS'taumdiff1_K_Pst'
p649
aS'taumdiff2_K_Pst'
p650
aa(lp651
S'tauhmean_K_Pst'
p652
aS'tauhdiff1_K_Pst'
p653
aS'tauhdiff2_K_Pst'
p654
aaS'sloh_K_Pst'
p655
aaa(lp656
(lp657
S'offc_SK_E2'
p658
aS'sloc_SK_E2'
p659
aaa(lp660
(lp661
g659
aaa(lp662
(lp663
(lp664
S'offma_Ih'
p665
aS'offmb_Ih'
p666
aa(lp667
S'sloma_Ih'
p668
aS'slomb_Ih'
p669
aaaa(lp670
(lp671
g665
ag668
aag671
aa(lp672
(lp673
S'offm_K_Pst'
p674
aS'offh_K_Pst'
p675
aS'slom_K_Pst'
p676
ag655
a(lp677
g648
ag649
ag650
aa(lp678
g652
ag653
ag654
aaaa(lp679
(lp680
g674
ag675
ag676
ag655
a(lp681
g648
ag649
ag650
aa(lp682
g652
ag653
ag654
aaaa(lp683
(lp684
g674
ag675
ag676
ag655
a(lp685
g648
ag649
ag650
aa(lp686
g652
ag653
ag654
aaaa(lp687
(lp688
g674
ag675
ag676
ag655
a(lp689
g648
ag649
ag650
aa(lp690
g652
ag653
ag654
aaaa(lp691
(lp692
g674
ag675
ag676
ag655
a(lp693
g648
ag649
ag650
aa(lp694
g652
ag653
ag654
aaaa(lp695
(lp696
g674
ag675
ag676
ag655
a(lp697
g648
ag649
ag650
aa(lp698
g652
ag653
ag654
aaaa(lp699
(lp700
(lp701
g475
ag476
aa(lp702
g478
ag479
aa(lp703
g522
ag523
aa(lp704
g515
ag516
aaaa(lp705
(lp706
(lp707
g475
ag476
aa(lp708
g478
ag479
aa(lp709
g522
ag523
aa(lp710
g515
ag516
aaaa(lp711
(lp712
(lp713
g475
ag476
aa(lp714
g478
ag479
aa(lp715
g522
ag523
aa(lp716
g515
ag516
aaaaa(lp717
(lp718
(lp719
F-25.9
aF-27.0
aaa(lp720
(lp721
F-37.3
aF-30.0
aaa(lp722
(lp723
F-31.4
aF0.85
aF-28.5
aF0.72
aa(lp724
F7.0
aF0.85
aF-28.5
aF0.72
aa(lp725
F-31.4
aF1.45
aF-28.5
aF0.72
aa(lp726
F7.0
aF1.45
aF-28.5
aF0.72
aa(lp727
F-31.4
aF0.85
aF16.3
aF0.72
aa(lp728
F7.0
aF0.85
aF16.3
aF0.72
aa(lp729
F-31.4
aF1.45
aF16.3
aF0.72
aa(lp730
F7.0
aF1.45
aF16.3
aF0.72
aa(lp731
F-31.4
aF0.85
aF-28.5
aF1.38
aa(lp732
F7.0
aF0.85
aF-28.5
aF1.38
aa(lp733
F-31.4
aF1.45
aF-28.5
aF1.38
aa(lp734
F7.0
aF1.45
aF-28.5
aF1.38
aa(lp735
F-31.4
aF0.85
aF16.3
aF1.38
aa(lp736
F7.0
aF0.85
aF16.3
aF1.38
aa(lp737
F-31.4
aF1.45
aF16.3
aF1.38
aa(lp738
F7.0
aF1.45
aF16.3
aF1.38
aaa(lp739
(lp740
F-38.5
aF0.46
aa(lp741
F12.9
aF0.46
aa(lp742
F-38.5
aF1.56
aa(lp743
F12.9
aF1.56
aaa(lp744
(lp745
F-27.8
aF0.89
aF-19.1
aa(lp746
F8.7
aF0.89
aF-19.1
aa(lp747
F-27.8
aF1.14
aF-19.1
aa(lp748
F8.7
aF1.14
aF-19.1
aa(lp749
F-27.8
aF0.89
aF4.7
aa(lp750
F8.7
aF0.89
aF4.7
aa(lp751
F-27.8
aF1.14
aF4.7
aa(lp752
F8.7
aF1.14
aF4.7
aaa(lp753
(lp754
F-11.2
aF-3.1
aF1.24
aa(lp755
F1.0
aF-3.1
aF1.24
aaa(lp756
(lp757
F-5.2
aF0.69
aaa(lp758
(lp759
F1.7
aaa(lp760
(lp761
F-4.9
aF-5.1
aF0.6
aF0.6
aa(lp762
F4.9
aF-5.1
aF0.6
aF0.6
aa(lp763
F-4.9
aF5.1
aF0.6
aF0.6
aa(lp764
F4.9
aF5.1
aF0.6
aF0.6
aa(lp765
F-4.9
aF-5.1
aF1.68
aF0.6
aa(lp766
F4.9
aF-5.1
aF1.68
aF0.6
aa(lp767
F-4.9
aF5.1
aF1.68
aF0.6
aa(lp768
F4.9
aF5.1
aF1.68
aF0.6
aa(lp769
F-4.9
aF-5.1
aF0.6
aF1.66
aa(lp770
F4.9
aF-5.1
aF0.6
aF1.66
aa(lp771
F-4.9
aF5.1
aF0.6
aF1.66
aa(lp772
F4.9
aF5.1
aF0.6
aF1.66
aa(lp773
F-4.9
aF-5.1
aF1.68
aF1.66
aa(lp774
F4.9
aF-5.1
aF1.68
aF1.66
aa(lp775
F-4.9
aF5.1
aF1.68
aF1.66
aa(lp776
F4.9
aF5.1
aF1.68
aF1.66
aaa(lp777
(lp778
F1.26
aaa(lp779
(lp780
F-10.9
aF0.73
aF-3.0
aF0.81
aF1.25
aa(lp781
F-10.9
aF0.73
aF3.5
aF0.81
aF1.25
aaa(lp782
(lp783
F-10.6
aF0.8
aF-5.3
aF0.66
aF0.72
aa(lp784
F3.4
aF0.8
aF-5.3
aF0.66
aF0.72
aa(lp785
F-10.6
aF1.12
aF-5.3
aF0.66
aF0.72
aa(lp786
F3.4
aF1.12
aF-5.3
aF0.66
aF0.72
aa(lp787
F-10.6
aF0.8
aF1.2
aF0.66
aF0.72
aa(lp788
F3.4
aF0.8
aF1.2
aF0.66
aF0.72
aa(lp789
F-10.6
aF1.12
aF1.2
aF0.66
aF0.72
aa(lp790
F3.4
aF1.12
aF1.2
aF0.66
aF0.72
aaa(lp791
(lp792
F6.6
aF0.75
aF0.5
aa(lp793
F6.6
aF1.19
aF0.5
aa(lp794
F6.6
aF0.75
aF1.12
aa(lp795
F6.6
aF1.19
aF1.12
aaa(lp796
(lp797
F-9.8
aF0.8
aF-15.4
aF1.05
aaa(lp798
(lp799
F-24.2
aF0.7
aF-14.5
aF0.72
aF3.52
aa(lp800
F6.1
aF0.7
aF-14.5
aF0.72
aF3.52
aa(lp801
F-24.2
aF1.24
aF-14.5
aF0.72
aF3.52
aa(lp802
F6.1
aF1.24
aF-14.5
aF0.72
aF3.52
aa(lp803
F-24.2
aF0.7
aF-14.5
aF1.28
aF3.52
aa(lp804
F6.1
aF0.7
aF-14.5
aF1.28
aF3.52
aa(lp805
F-24.2
aF1.24
aF-14.5
aF1.28
aF3.52
aa(lp806
F6.1
aF1.24
aF-14.5
aF1.28
aF3.52
aaa(lp807
(lp808
F-17.8
aF0.81
aF0.77
aa(lp809
F-17.8
aF0.81
aF1.31
aaa(lp810
(lp811
F1.3
aF1.6
aF0.87
aF0.8
aa(lp812
F1.3
aF1.6
aF1.45
aF0.8
aaa(lp813
(lp814
F-4.3
aF1.14
aF-4.4
aF0.89
aF0.53
aF0.46
aa(lp815
F-4.3
aF1.14
aF-4.4
aF1.04
aF0.53
aF0.46
aaa(lp816
(lp817
F0.67
aaa(lp818
(lp819
F-30.02
aF0.62
aF0.49
aaa(lp820
(lp821
F-4.4
aF0.95
aF20.6
aF0.97
aaa(lp822
(lp823
F0.6
aaa(lp824
(lp825
F1.97
aaa(lp826
(lp827
F1.5
aF1.4
aaa(lp828
(lp829
F4.45
aaa(lp830
(lp831
F1.1
aaa(lp832
(lp833
F0.4
aaa(lp834
(lp835
F-0.3
aI5
aF1.15
aF1.23
aaa(lp836
(lp837
F2.8
aF9.6
aF0.984
aF1.042
aaa(lp838
(lp839
F-4.0
aF-5.8
aF0.92
aF1.13
aF1.47
aaa(lp840
(lp841
F-8.1
aF2.2
aF0.97
aF0.97
aF1.59
aaa(lp842
(lp843
F6.0
aF1.16
aF1.29
aaa(lp844
(lp845
F10.0
aF-0.6
aF1.15
aF1.14
aaa(lp846
(lp847
F6.8
aaa(lp848
(lp849
F3.5
aF0.55
aF-7.1
aF17.0
aF0.69
aaa(lp850
(lp851
F-9.1
aF3.1
aaa(lp852
(lp853
F-7.6
aF4.3
aaa(lp854
(lp855
F2.0
aF2.5
aF0.5
aaa(lp856
(lp857
F0.86
aF1.24
aaa(lp858
(lp859
F0.84
aaa(lp860
(lp861
F-26.5
aF0.64
aaa(lp862
(lp863
F-25.9
aF0.6
aa(lp864
F17.7
aF0.6
aaa(lp865
(lp866
I5
aI3
aF1.11
aF0.86
aF0.5
aF0.53
aaa(lp867
(lp868
I1
aI-6
aF1.22
aF1.0
aF0.89
aF1.13
aaa(lp869
(lp870
I6
aI-8
aF1.33
aF1.0
aF0.5
aF0.87
aaa(lp871
(lp872
I-28
aI-27
aF1.11
aF0.71
aF1.13
aF2.27
aaa(lp873
(lp874
I14
aI-21
aF2.0
aF1.0
aF0.39
aF1.2
aaa(lp875
(lp876
I-13
aI-13
aF1.33
aF0.71
aF0.95
aF5.13
aaa(lp877
(lp878
F3.0
aF3.48
aF1.01
aF0.89
aaa(lp879
(lp880
F-1.11
aF5.14
aF0.6
aF1.48
aaa(lp881
(lp882
F-1.88
aF2.69
aF0.6
aF1.35
aaaa(lp883
(lp884
(lp885
(lp886
g474
a(lp887
F-25.9
aaa(lp888
g477
a(lp889
F-27.0
aaaa(lp890
(lp891
g482
a(lp892
F-37.3
aaa(lp893
g483
a(lp894
F-30.0
aaaa(lp895
(lp896
g486
a(lp897
F-31.4
aF7.0
aaa(lp898
g487
a(lp899
F0.85
aF1.45
aaa(lp900
g490
a(lp901
F-28.5
aF16.3
aaa(lp902
g491
a(lp903
F0.72
aF1.38
aaaa(lp904
(lp905
g496
a(lp906
F-38.5
aF12.9
aaa(lp907
g497
a(lp908
F0.46
aF1.56
aaaa(lp909
(lp910
g500
a(lp911
F-27.8
aF8.7
aaa(lp912
g501
a(lp913
F0.89
aF1.14
aaa(lp914
g502
a(lp915
F-19.1
aF4.7
aaaa(lp916
(lp917
g505
a(lp918
F-11.2
aF1.0
aaa(lp919
g506
a(lp920
F-3.1
aaa(lp921
g507
a(lp922
F1.24
aaaaa(lp923
(lp924
(lp925
g510
a(lp926
F-5.2
aaa(lp927
g511
a(lp928
F0.69
aaaa(lp929
(lp930
g514
a(lp931
F1.7
aaaa(lp932
(lp933
g519
a(lp934
F-4.9
aF4.9
aaa(lp935
g520
a(lp936
F-5.1
aF5.1
aaa(lp937
g521
a(lp938
F0.6
aF1.68
aaa(lp939
g524
a(lp940
F0.6
aF1.66
aaaa(lp941
(lp942
g527
a(lp943
F1.26
aaaaa(lp944
(lp945
(lp946
g530
a(lp947
F-10.9
aaa(lp948
g531
a(lp949
F0.73
aaa(lp950
g532
a(lp951
F-3.0
aF3.5
aaa(lp952
g533
a(lp953
F0.81
aaa(lp954
g534
a(lp955
F1.25
aaaa(lp956
(lp957
g537
a(lp958
F-10.6
aF3.4
aaa(lp959
g538
a(lp960
F0.8
aF1.12
aaa(lp961
g539
a(lp962
F-5.3
aF1.2
aaa(lp963
g540
a(lp964
F0.66
aaa(lp965
g541
a(lp966
F0.72
aaaa(lp967
(lp968
g544
a(lp969
F6.6
aaa(lp970
g545
a(lp971
F0.75
aF1.19
aaa(lp972
g546
a(lp973
F0.5
aF1.12
aaaa(lp974
(lp975
g549
a(lp976
F-9.8
aaa(lp977
g550
a(lp978
F0.8
aaa(lp979
g551
a(lp980
F-15.4
aaa(lp981
g552
a(lp982
F1.05
aaaa(lp983
(lp984
g555
a(lp985
F-24.2
aF6.1
aaa(lp986
g556
a(lp987
F0.7
aF1.24
aaa(lp988
g557
a(lp989
F-14.5
aaa(lp990
g558
a(lp991
F0.72
aF1.28
aaa(lp992
g559
a(lp993
F3.52
aaaa(lp994
(lp995
g562
a(lp996
F-17.8
aaa(lp997
g563
a(lp998
F0.81
aaa(lp999
g564
a(lp1000
F0.77
aF1.31
aaaaa(lp1001
(lp1002
(lp1003
g567
a(lp1004
F1.3
aaa(lp1005
g568
a(lp1006
F1.6
aaa(lp1007
g569
a(lp1008
F0.87
aF1.45
aaa(lp1009
g572
a(lp1010
F0.8
aaaa(lp1011
(lp1012
g567
a(lp1013
F-4.3
aaa(lp1014
g577
a(lp1015
F1.14
aaa(lp1016
g568
a(lp1017
F-4.4
aaa(lp1018
g578
a(lp1019
F0.89
aF1.04
aaa(lp1020
g579
a(lp1021
F0.53
aaa(lp1022
g580
a(lp1023
F0.46
aaaaa(lp1024
(lp1025
(lp1026
g583
a(lp1027
F0.67
aaaa(lp1028
(lp1029
g586
a(lp1030
F-30.02
aaa(lp1031
g587
a(lp1032
F0.62
aaa(lp1033
g588
a(lp1034
F0.49
aaaa(lp1035
(lp1036
g591
a(lp1037
F-4.4
aaa(lp1038
g592
a(lp1039
F0.95
aaa(lp1040
g593
a(lp1041
F20.6
aaa(lp1042
g594
a(lp1043
F0.97
aaaaa(lp1044
(lp1045
(lp1046
g597
a(lp1047
F0.6
aaaaa(lp1048
(lp1049
(lp1050
g600
a(lp1051
F1.97
aaaa(lp1052
(lp1053
g600
a(lp1054
F1.5
aaa(lp1055
g603
a(lp1056
F1.4
aaaa(lp1057
(lp1058
g600
a(lp1059
F4.45
aaaa(lp1060
(lp1061
g603
a(lp1062
F1.1
aaaaa(lp1063
(lp1064
(lp1065
g597
a(lp1066
F0.4
aaaaa(lp1067
(lp1068
(lp1069
g612
a(lp1070
F-0.3
aaa(lp1071
g613
a(lp1072
I5
aaa(lp1073
g614
a(lp1074
F1.15
aaa(lp1075
g615
a(lp1076
F1.23
aaaa(lp1077
(lp1078
g612
a(lp1079
F2.8
aaa(lp1080
g613
a(lp1081
F9.6
aaa(lp1082
g614
a(lp1083
F0.984
aaa(lp1084
g615
a(lp1085
F1.042
aaaa(lp1086
(lp1087
g612
a(lp1088
F-4.0
aaa(lp1089
g613
a(lp1090
F-5.8
aaa(lp1091
g614
a(lp1092
F0.92
aaa(lp1093
g615
a(lp1094
F1.13
aaa(lp1095
g620
a(lp1096
F1.47
aaaa(lp1097
(lp1098
g612
a(lp1099
F-8.1
aaa(lp1100
g613
a(lp1101
F2.2
aaa(lp1102
g614
a(lp1103
F0.97
aaa(lp1104
g615
a(lp1105
F0.97
aaa(lp1106
g625
a(lp1107
F1.59
aaaa(lp1108
(lp1109
g612
a(lp1110
F6.0
aaa(lp1111
g614
a(lp1112
F1.16
aaa(lp1113
g628
a(lp1114
F1.29
aaaa(lp1115
(lp1116
g612
a(lp1117
F10.0
aaa(lp1118
g613
a(lp1119
F-0.6
aaa(lp1120
g614
a(lp1121
F1.15
aaa(lp1122
g615
a(lp1123
F1.14
aaaaa(lp1124
(lp1125
(lp1126
g633
a(lp1127
F6.8
aaaa(lp1128
(lp1129
g639
a(lp1130
F3.5
aaa(lp1131
g640
a(lp1132
F0.55
aaa(lp1133
g612
a(lp1134
F-7.1
aaa(lp1135
g613
a(lp1136
F17.0
aaa(lp1137
g615
a(lp1138
F0.69
aaaa(lp1139
(lp1140
g612
a(lp1141
F-9.1
aaa(lp1142
g613
a(lp1143
F3.1
aaaa(lp1144
(lp1145
g612
a(lp1146
F-7.6
aaa(lp1147
g613
a(lp1148
F4.3
aaaaa(lp1149
(lp1150
(lp1151
g647
a(lp1152
F2.0
aaa(lp1153
g651
a(lp1154
F2.5
aaa(lp1155
g655
a(lp1156
F0.5
aaaaa(lp1157
(lp1158
(lp1159
g658
a(lp1160
F0.86
aaa(lp1161
g659
a(lp1162
F1.24
aaaa(lp1163
(lp1164
g659
a(lp1165
F0.84
aaaaa(lp1166
(lp1167
(lp1168
g664
a(lp1169
F-26.5
aaa(lp1170
g667
a(lp1171
F0.64
aaaa(lp1172
(lp1173
g665
a(lp1174
F-25.9
aF17.7
aaa(lp1175
g668
a(lp1176
F0.6
aaaaa(lp1177
(lp1178
(lp1179
g674
a(lp1180
I5
aaa(lp1181
g675
a(lp1182
I3
aaa(lp1183
g676
a(lp1184
F1.11
aaa(lp1185
g655
a(lp1186
F0.86
aaa(lp1187
g677
a(lp1188
F0.5
aaa(lp1189
g678
a(lp1190
F0.53
aaaa(lp1191
(lp1192
g674
a(lp1193
I1
aaa(lp1194
g675
a(lp1195
I-6
aaa(lp1196
g676
a(lp1197
F1.22
aaa(lp1198
g655
a(lp1199
F1.0
aaa(lp1200
g681
a(lp1201
F0.89
aaa(lp1202
g682
a(lp1203
F1.13
aaaa(lp1204
(lp1205
g674
a(lp1206
I6
aaa(lp1207
g675
a(lp1208
I-8
aaa(lp1209
g676
a(lp1210
F1.33
aaa(lp1211
g655
a(lp1212
F1.0
aaa(lp1213
g685
a(lp1214
F0.5
aaa(lp1215
g686
a(lp1216
F0.87
aaaa(lp1217
(lp1218
g674
a(lp1219
I-28
aaa(lp1220
g675
a(lp1221
I-27
aaa(lp1222
g676
a(lp1223
F1.11
aaa(lp1224
g655
a(lp1225
F0.71
aaa(lp1226
g689
a(lp1227
F1.13
aaa(lp1228
g690
a(lp1229
F2.27
aaaa(lp1230
(lp1231
g674
a(lp1232
I14
aaa(lp1233
g675
a(lp1234
I-21
aaa(lp1235
g676
a(lp1236
F2.0
aaa(lp1237
g655
a(lp1238
F1.0
aaa(lp1239
g693
a(lp1240
F0.39
aaa(lp1241
g694
a(lp1242
F1.2
aaaa(lp1243
(lp1244
g674
a(lp1245
I-13
aaa(lp1246
g675
a(lp1247
I-13
aaa(lp1248
g676
a(lp1249
F1.33
aaa(lp1250
g655
a(lp1251
F0.71
aaa(lp1252
g697
a(lp1253
F0.95
aaa(lp1254
g698
a(lp1255
F5.13
aaaaa(lp1256
(lp1257
(lp1258
g701
a(lp1259
F3.0
aaa(lp1260
g702
a(lp1261
F3.48
aaa(lp1262
g703
a(lp1263
F1.01
aaa(lp1264
g704
a(lp1265
F0.89
aaaa(lp1266
(lp1267
g707
a(lp1268
F-1.11
aaa(lp1269
g708
a(lp1270
F5.14
aaa(lp1271
g709
a(lp1272
F0.6
aaa(lp1273
g710
a(lp1274
F1.48
aaaa(lp1275
(lp1276
g713
a(lp1277
F-1.88
aaa(lp1278
g714
a(lp1279
F2.69
aaa(lp1280
g715
a(lp1281
F0.6
aaa(lp1282
g716
a(lp1283
F1.35
aaaaaa.