(lp0
I3000
aI44
a(lp1
I1300
aI1185
aa(lp2
(lp3
(lp4
F17.0
aF0.8566027547042323
aa(lp5
F40.0
aF0.3584788972878855
aa(lp6
F37.0
aF0.6102129658652542
aa(lp7
F38.0
aF0.5568475845761455
aa(lp8
F9.0
aF0.9487648686296927
aa(lp9
F40.0
aF0.708930439695681
aa(lp10
F40.0
aF0.35120345485885696
aa(lp11
F37.0
aF0.42912598140003705
aa(lp12
F36.0
aF0.6003290911956957
aa(lp13
F41.0
aF0.8718580421208943
aa(lp14
F9.0
aF0.5173992814107832
aa(lp15
F42.0
aF0.823305334650901
aa(lp16
F36.0
aF0.5507385735926292
aa(lp17
F9.0
aF0.5400661892330141
aa(lp18
F37.0
aF0.4019903730967969
aa(lp19
F36.0
aF0.617951772430279
aa(lp20
F36.0
aF0.5596336020705864
aa(lp21
F36.0
aF0.8491186209942149
aa(lp22
F40.0
aF0.717755546208021
aa(lp23
F38.0
aF0.4499334724949807
aa(lp24
F63.0
aF0.9517124634340024
aa(lp25
F17.0
aF0.7799409788669781
aa(lp26
F39.0
aF0.6405756810810053
aa(lp27
F42.0
aF0.7628047856228013
aa(lp28
F40.0
aF0.6810395204852654
aa(lp29
F36.0
aF0.9045153951782721
aa(lp30
F40.0
aF0.9363348979047414
aa(lp31
F37.0
aF0.6458483810629531
aa(lp32
F9.0
aF0.5746507493444011
aa(lp33
F40.0
aF0.5221887988502986
aa(lp34
F35.0
aF0.8475063560175872
aa(lp35
F39.0
aF0.2637072251281215
aa(lp36
F37.0
aF0.17337128202306404
aa(lp37
F37.0
aF0.6572194134282099
aa(lp38
F37.0
aF0.7024910007158588
aa(lp39
F37.0
aF0.5894384052585938
aa(lp40
F9.0
aF0.6311549888076123
aa(lp41
F63.0
aF0.8951719878187276
aa(lp42
F37.0
aF0.24174459470981005
aa(lp43
F37.0
aF0.6348297885579975
aa(lp44
F40.0
aF0.3913308713067406
aa(lp45
F40.0
aF0.8283171918194244
aa(lp46
F37.0
aF0.6765597203267618
aa(lp47
F37.0
aF0.9082129926309028
aa(lp48
F36.0
aF0.7655268842751181
aa(lp49
F44.0
aF0.7313120393988275
aa(lp50
F40.0
aF0.45525823861275994
aa(lp51
F40.0
aF0.9543494170441023
aa(lp52
F40.0
aF0.5793182627035415
aa(lp53
F37.0
aF0.8487396309119358
aa(lp54
F9.0
aF0.7108281624021864
aa(lp55
F37.0
aF0.8800068328928324
aa(lp56
F37.0
aF0.6438100150676423
aa(lp57
F37.0
aF0.10855693942103499
aa(lp58
F37.0
aF0.7659568928501728
aa(lp59
F38.0
aF0.10681551022658262
aa(lp60
F9.0
aF0.5333460326634554
aa(lp61
F35.0
aF0.8864504143234686
aa(lp62
F40.0
aF0.8318177012505826
aa(lp63
F40.0
aF0.5206958487773508
aa(lp64
F36.0
aF0.7085051704556873
aa(lp65
F38.0
aF0.8042878833780162
aa(lp66
F9.0
aF0.46219536925163723
aa(lp67
F40.0
aF0.31862026226738255
aa(lp68
F17.0
aF0.7150732369200659
aa(lp69
F37.0
aF0.06380938281096597
aa(lp70
F35.0
aF0.7235381646583154
aa(lp71
F35.0
aF0.8024611204835367
aa(lp72
F39.0
aF0.438396695098348
aa(lp73
F36.0
aF0.9804872888794325
aa(lp74
F9.0
aF0.5059786885148676
aa(lp75
F37.0
aF0.3405921930839375
aa(lp76
F17.0
aF0.7109373499833835
aa(lp77
F37.0
aF0.6633324606705779
aa(lp78
F38.0
aF0.028586086888563397
aa(lp79
F9.0
aF0.48822014893443405
aa(lp80
F17.0
aF0.9254313119384773
aa(lp81
F35.0
aF0.7291156538059697
aa(lp82
F38.0
aF0.8624931524461819
aa(lp83
F36.0
aF0.5670488868110914
aa(lp84
F40.0
aF0.5241681876243762
aa(lp85
F36.0
aF0.5776334829732281
aa(lp86
F37.0
aF0.24644228465411552
aa(lp87
F36.0
aF0.9774050852259031
aa(lp88
F9.0
aF0.7276115924378618
aa(lp89
F44.0
aF0.8594602531311047
aa(lp90
F36.0
aF0.916820893113473
aa(lp91
F36.0
aF0.9330360282152327
aa(lp92
F40.0
aF0.26144697031162906
aa(lp93
F36.0
aF0.6965347042353716
aa(lp94
F40.0
aF0.9180257530860679
aa(lp95
F40.0
aF0.6293333814154813
aa(lp96
F37.0
aF0.881024423102804
aa(lp97
F40.0
aF0.8647849634115283
aa(lp98
F39.0
aF0.28378070417780626
aa(lp99
F37.0
aF0.18518789096672808
aa(lp100
F36.0
aF0.5065511247796891
aa(lp101
F37.0
aF0.38412524509871415
aa(lp102
F17.0
aF0.6862593697022327
aa(lp103
F36.0
aF0.8747686545204489
aa(lp104
F36.0
aF0.9941210600399256
aa(lp105
F41.0
aF0.6120656225623241
aa(lp106
F36.0
aF0.4865370848741692
aa(lp107
F63.0
aF0.9185117135061788
aa(lp108
F37.0
aF0.044534055382336984
aa(lp109
F38.0
aF0.8197127715357241
aa(lp110
F42.0
aF0.6678043909377073
aa(lp111
F40.0
aF0.9359172292694615
aa(lp112
F37.0
aF0.5706422038507257
aa(lp113
F36.0
aF0.6242958650077307
aa(lp114
F9.0
aF0.8908867396364609
aa(lp115
F42.0
aF0.19427409469158502
aa(lp116
F40.0
aF0.33580150910407186
aa(lp117
F40.0
aF0.7350575813258189
aa(lp118
F37.0
aF0.048838307506875255
aa(lp119
F40.0
aF0.86302643366049
aa(lp120
F44.0
aF0.6979436461372959
aa(lp121
F17.0
aF0.8621883142162728
aa(lp122
F17.0
aF0.6854103568732741
aa(lp123
F9.0
aF0.8184595305108145
aa(lp124
F40.0
aF0.4769755540061346
aa(lp125
F37.0
aF0.05105352012641938
aa(lp126
F40.0
aF0.44673125365514393
aa(lp127
F37.0
aF0.8828370167786356
aa(lp128
F9.0
aF0.8723684242091437
aa(lp129
F40.0
aF0.9766865826488962
aa(lp130
F42.0
aF0.5087613239907113
aa(lp131
F36.0
aF0.7977503359409415
aa(lp132
F40.0
aF0.6700010935791622
aa(lp133
F38.0
aF0.7732219720755031
aa(lp134
F17.0
aF0.7470132881079643
aa(lp135
F9.0
aF0.6093151601589445
aa(lp136
F63.0
aF0.9252125505761484
aa(lp137
F17.0
aF0.7496058862093748
aa(lp138
F36.0
aF0.6519388102798014
aa(lp139
F17.0
aF0.6772126468685459
aa(lp140
F37.0
aF0.18630389761493227
aa(lp141
F42.0
aF0.15484864783925403
aa(lp142
F36.0
aF0.7008240779982137
aa(lp143
F9.0
aF0.9882959887660977
aa(lp144
F9.0
aF0.6067721051494739
aa(lp145
F63.0
aF0.8915212083352374
aa(lp146
F37.0
aF0.9761491075145702
aa(lp147
F36.0
aF0.9449302337296974
aa(lp148
F42.0
aF0.24797665186401327
aa(lp149
F44.0
aF0.8819511059111173
aa(lp150
F36.0
aF0.5450054831804148
aa(lp151
F63.0
aF0.8756225145232153
aa(lp152
F38.0
aF0.9776328677203048
aa(lp153
F36.0
aF0.7239657944606359
aa(lp154
F36.0
aF0.920631045525639
aa(lp155
F9.0
aF0.870007127515113
aa(lp156
F63.0
aF0.8963141953138564
aa(lp157
F38.0
aF0.5616486515119885
aa(lp158
F42.0
aF0.8587169749556666
aa(lp159
F36.0
aF0.9184422998697811
aa(lp160
F36.0
aF0.9590141191543572
aa(lp161
F40.0
aF0.9899866020720814
aa(lp162
F37.0
aF0.027302958787452532
aa(lp163
F37.0
aF0.9125210126992267
aa(lp164
F36.0
aF0.6669336812618587
aa(lp165
F36.0
aF0.6614754894109226
aa(lp166
F37.0
aF0.8120028986284331
aa(lp167
F9.0
aF0.830668847415456
aa(lp168
F36.0
aF0.8533586688190224
aa(lp169
F37.0
aF0.6023466779938468
aa(lp170
F17.0
aF0.9693419579577661
aa(lp171
F40.0
aF0.5104045067496604
aa(lp172
F44.0
aF0.6375998831627994
aa(lp173
F40.0
aF0.41900970284915323
aa(lp174
F40.0
aF0.6397316507995262
aa(lp175
F17.0
aF0.7002185947530353
aa(lp176
F42.0
aF0.38121310562958005
aa(lp177
F40.0
aF0.9912452407706466
aa(lp178
F42.0
aF0.18296930580834045
aa(lp179
F36.0
aF0.9562967774829243
aa(lp180
F40.0
aF0.55359746444124
aa(lp181
F40.0
aF0.7330438082246795
aa(lp182
F38.0
aF0.9937916293985725
aa(lp183
F37.0
aF0.3829959090044993
aa(lp184
F39.0
aF0.5044893967239035
aa(lp185
F36.0
aF0.6974655561889562
aa(lp186
F44.0
aF0.8057939289219713
aa(lp187
F37.0
aF0.8050021771995929
aa(lp188
F40.0
aF0.7845190150602325
aa(lp189
F37.0
aF0.24938189650363574
aa(lp190
F36.0
aF0.7194119492491179
aa(lp191
F38.0
aF0.4975861349232173
aa(lp192
F37.0
aF0.882193347487833
aa(lp193
F37.0
aF0.101875721215481
aa(lp194
F17.0
aF0.8040590331927335
aa(lp195
F40.0
aF0.6756783038255871
aa(lp196
F37.0
aF0.26881820439293974
aa(lp197
F37.0
aF0.7305808269746986
aa(lp198
F38.0
aF0.5251896028584746
aa(lp199
F38.0
aF0.9583546660936573
aa(lp200
F37.0
aF0.5501199512714301
aa(lp201
F37.0
aF0.30921254530351583
aa(lp202
F42.0
aF0.10384905071001874
aa(lp203
F9.0
aF0.6608530465688065
aa(lp204
F37.0
aF0.6690338771262323
aa(lp205
F40.0
aF0.9389177193269826
aa(lp206
F39.0
aF0.04948642144975699
aa(lp207
F37.0
aF0.16219555654173445
aa(lp208
F39.0
aF0.9457238064572064
aa(lp209
F40.0
aF0.8087835564813144
aa(lp210
F44.0
aF0.7665064977945313
aa(lp211
F35.0
aF0.877785310673244
aa(lp212
F40.0
aF0.32915145450927946
aa(lp213
F38.0
aF0.9022833398734005
aa(lp214
F37.0
aF0.07668553096564895
aa(lp215
F9.0
aF0.6136352044414258
aa(lp216
F40.0
aF0.5734952887693291
aa(lp217
F44.0
aF0.7589036464176672
aa(lp218
F40.0
aF0.4168106565294972
aa(lp219
F38.0
aF0.6502606083895831
aa(lp220
F37.0
aF0.4279375161397268
aa(lp221
F44.0
aF0.8987138467812269
aa(lp222
F40.0
aF0.5480247909610296
aa(lp223
F35.0
aF0.771049804715636
aa(lp224
F44.0
aF0.7587283255866131
aa(lp225
F37.0
aF0.9910145614418953
aa(lp226
F17.0
aF0.7640108181654603
aa(lp227
F9.0
aF0.38223425385614623
aa(lp228
F37.0
aF0.4051942694819572
aa(lp229
F38.0
aF0.2801356723566662
aa(lp230
F40.0
aF0.7068237867056909
aa(lp231
F40.0
aF0.4914543755301658
aa(lp232
F44.0
aF0.9273274165140575
aa(lp233
F37.0
aF0.5934755282401643
aa(lp234
F40.0
aF0.38424422333405445
aa(lp235
F37.0
aF0.20431969658379745
aa(lp236
F17.0
aF0.7073957365194482
aa(lp237
F17.0
aF0.7639055599618724
aa(lp238
F37.0
aF0.7905911653525889
aa(lp239
F40.0
aF0.3452916141876337
aa(lp240
F17.0
aF0.8692889971924451
aa(lp241
F37.0
aF0.8893381922337021
aa(lp242
F37.0
aF0.637702443923598
aa(lp243
F37.0
aF0.7294672361177105
aa(lp244
F37.0
aF0.4180075252739336
aa(lp245
F40.0
aF0.45249358230734843
aa(lp246
F37.0
aF0.5988662246731883
aa(lp247
F37.0
aF0.1837021463229728
aa(lp248
F9.0
aF0.38139377627401694
aa(lp249
F37.0
aF0.9819150278614646
aa(lp250
F40.0
aF0.6780483947083304
aa(lp251
F63.0
aF0.9183209050545826
aa(lp252
F40.0
aF0.7032269741898984
aa(lp253
F40.0
aF0.26528540417547786
aa(lp254
F38.0
aF0.19398359051691735
aa(lp255
F37.0
aF0.1180804803074878
aa(lp256
F37.0
aF0.22569015149118607
aa(lp257
F37.0
aF0.28390611637684754
aa(lp258
F37.0
aF0.9322137967407738
aa(lp259
F41.0
aF0.3493161339348806
aa(lp260
F37.0
aF0.600324096016422
aa(lp261
F38.0
aF0.42763955415987326
aa(lp262
F38.0
aF0.3048419303921357
aa(lp263
F38.0
aF0.3000895498675226
aa(lp264
F42.0
aF0.7779350322798162
aa(lp265
F40.0
aF0.7600591336352381
aa(lp266
F40.0
aF0.6094316814086032
aa(lp267
F37.0
aF0.08199925718618614
aa(lp268
F39.0
aF0.3654510971594987
aa(lp269
F37.0
aF0.7868269593700246
aa(lp270
F40.0
aF0.6953495300202284
aa(lp271
F37.0
aF0.5076983699896759
aa(lp272
F37.0
aF0.6639292654990746
aa(lp273
F37.0
aF0.34666775232407954
aa(lp274
F38.0
aF0.6172178585469675
aa(lp275
F37.0
aF0.6526499269060078
aa(lp276
F39.0
aF0.006384529318032866
aa(lp277
F38.0
aF0.9858932549862098
aa(lp278
F40.0
aF0.953598323833195
aa(lp279
F9.0
aF0.8291239683996202
aa(lp280
F37.0
aF0.7106659476881282
aa(lp281
F37.0
aF0.6684086861937294
aa(lp282
F39.0
aF0.47613884724339384
aa(lp283
F40.0
aF0.8596092793874631
aa(lp284
F39.0
aF0.33828037377066583
aa(lp285
F9.0
aF0.5494842602220603
aa(lp286
F38.0
aF0.2217894648106603
aa(lp287
F37.0
aF0.37983940616374434
aa(lp288
F40.0
aF0.46381001311582504
aa(lp289
F38.0
aF0.2612782256090854
aa(lp290
F44.0
aF0.9206001187579019
aa(lp291
F42.0
aF0.24245922871921172
aa(lp292
F38.0
aF0.035614318847855674
aa(lp293
F37.0
aF0.7229483785923518
aa(lp294
F17.0
aF0.8778458747176018
aa(lp295
F37.0
aF0.12411480718552631
aa(lp296
F39.0
aF0.5791222776310514
aa(lp297
F17.0
aF0.6974176559273314
aa(lp298
F37.0
aF0.5990918871346358
aa(lp299
F35.0
aF0.9749205455917248
aa(lp300
F37.0
aF0.9795608806020109
aa(lp301
F39.0
aF0.28174659074211256
aa(lp302
F44.0
aF0.8145339703678286
aa(lp303
F37.0
aF0.05664629162729876
aa(lp304
F17.0
aF0.7638803821692103
aa(lp305
F9.0
aF0.9574110202213665
aa(lp306
F37.0
aF0.6087214927811363
aa(lp307
F35.0
aF0.806654257442054
aa(lp308
F40.0
aF0.6329156978265051
aa(lp309
F37.0
aF0.9159486339710226
aa(lp310
F39.0
aF0.5067494825322449
aa(lp311
F37.0
aF0.96546776145564
aa(lp312
F63.0
aF0.9628927867903692
aa(lp313
F40.0
aF0.5223760444468522
aa(lp314
F37.0
aF0.9171101539891168
aa(lp315
F37.0
aF0.26464431349517514
aa(lp316
F40.0
aF0.33309656853113045
aa(lp317
F42.0
aF0.25440744841192875
aa(lp318
F17.0
aF0.9181289092713101
aa(lp319
F9.0
aF0.7171106440544863
aa(lp320
F17.0
aF0.8316521570292603
aa(lp321
F40.0
aF0.7294503361969126
aa(lp322
F9.0
aF0.5806017076351373
aa(lp323
F40.0
aF0.7325838436493487
aa(lp324
F9.0
aF0.9309722132754444
aa(lp325
F38.0
aF0.39495817728040766
aa(lp326
F38.0
aF0.9613239412675376
aa(lp327
F38.0
aF0.6881901184874704
aa(lp328
F38.0
aF0.3207971083770631
aa(lp329
F38.0
aF0.4419881074562443
aa(lp330
F9.0
aF0.7364325067845232
aa(lp331
F37.0
aF0.9541675693860738
aa(lp332
F38.0
aF0.025183980851886733
aa(lp333
F37.0
aF0.7069536175350949
aa(lp334
F37.0
aF0.09566715649591792
aa(lp335
F37.0
aF0.3521746430087735
aa(lp336
F39.0
aF0.47837531661131477
aa(lp337
F39.0
aF0.6330333310930942
aa(lp338
F40.0
aF0.8004671978103387
aa(lp339
F9.0
aF0.6899449080473541
aa(lp340
F40.0
aF0.5983809717917288
aa(lp341
F37.0
aF0.1572705806345801
aa(lp342
F9.0
aF0.6099103655915337
aa(lp343
F37.0
aF0.4217540454014918
aa(lp344
F37.0
aF0.24749249924406552
aa(lp345
F40.0
aF0.9355395032244898
aa(lp346
F37.0
aF0.7154123669060627
aa(lp347
F40.0
aF0.5367403485346464
aa(lp348
F9.0
aF0.5725541964055554
aa(lp349
F39.0
aF0.8678324415790526
aa(lp350
F17.0
aF0.8318003176972872
aa(lp351
F40.0
aF0.5685087189335438
aa(lp352
F37.0
aF0.012011269077309804
aa(lp353
F40.0
aF0.45509363016402204
aa(lp354
F37.0
aF0.9311727909581823
aa(lp355
F38.0
aF0.5681380225874384
aa(lp356
F63.0
aF0.9244393447496775
aa(lp357
F40.0
aF0.7041646549863038
aa(lp358
F37.0
aF0.7556093895451135
aa(lp359
F40.0
aF0.6887376775504604
aa(lp360
F17.0
aF0.9855700785735068
aa(lp361
F37.0
aF0.7029948633012345
aa(lp362
F37.0
aF0.06726998086090726
aa(lp363
F9.0
aF0.631705614836043
aa(lp364
F38.0
aF0.5513754421762929
aa(lp365
F37.0
aF0.6305540708251844
aa(lp366
F9.0
aF0.7910488523897987
aa(lp367
F37.0
aF0.5532713022075836
aa(lp368
F42.0
aF0.5657207169625197
aa(lp369
F40.0
aF0.6109087657577063
aa(lp370
F42.0
aF0.44671278881787835
aa(lp371
F17.0
aF0.8578372138531973
aa(lp372
F37.0
aF0.9002860970255766
aa(lp373
F40.0
aF0.45668611505793294
aa(lp374
F40.0
aF0.275111120551884
aa(lp375
F42.0
aF0.8939873608836606
aa(lp376
F37.0
aF0.2742183211684689
aa(lp377
F63.0
aF0.8744261659439971
aa(lp378
F35.0
aF0.7992427503796145
aa(lp379
F38.0
aF0.9667373647755624
aa(lp380
F42.0
aF0.10087283956665352
aa(lp381
F37.0
aF0.3050974129773806
aa(lp382
F9.0
aF0.6728815107557252
aa(lp383
F37.0
aF0.7921137771932286
aa(lp384
F17.0
aF0.7005591768902868
aa(lp385
F38.0
aF0.3331925373657709
aa(lp386
F9.0
aF0.8518984213826322
aa(lp387
F40.0
aF0.7812784943307853
aa(lp388
F9.0
aF0.4947225937120385
aa(lp389
F40.0
aF0.7666877804047837
aa(lp390
F37.0
aF0.9816031418030369
aa(lp391
F40.0
aF0.9865455333786141
aa(lp392
F38.0
aF0.8328809026396098
aa(lp393
F42.0
aF0.9480796117443427
aa(lp394
F39.0
aF0.7291364209171923
aa(lp395
F63.0
aF0.9856556235674067
aa(lp396
F40.0
aF0.3904028834313474
aa(lp397
F37.0
aF0.5799668251804526
aa(lp398
F40.0
aF0.9373957846386195
aa(lp399
F37.0
aF0.9328273515143171
aa(lp400
F40.0
aF0.7837835923166521
aa(lp401
F39.0
aF0.024506683391013348
aa(lp402
F17.0
aF0.7751315838117391
aa(lp403
F40.0
aF0.9592747607450326
aa(lp404
F44.0
aF0.8937741774004732
aa(lp405
F37.0
aF0.8871308295642851
aa(lp406
F37.0
aF0.7194563495270527
aa(lp407
F40.0
aF0.6252123079742731
aa(lp408
F37.0
aF0.2949371393351014
aa(lp409
F37.0
aF0.649587975738308
aa(lp410
F37.0
aF0.8076237454447495
aa(lp411
F63.0
aF0.9637243619254411
aa(lp412
F37.0
aF0.8652051270029503
aa(lp413
F37.0
aF0.27264174860908336
aa(lp414
F40.0
aF0.9988960827177261
aa(lp415
F41.0
aF0.4738843094413664
aa(lp416
F40.0
aF0.7604266836563102
aa(lp417
F37.0
aF0.49779158733322615
aa(lp418
F37.0
aF0.16588148867667635
aa(lp419
F37.0
aF0.5595039212662197
aa(lp420
F37.0
aF0.4680625654568016
aa(lp421
F37.0
aF0.10025948204412416
aa(lp422
F9.0
aF0.4714826643729799
aa(lp423
F37.0
aF0.950844686085856
aa(lp424
F63.0
aF0.9830372750522292
aa(lp425
F37.0
aF0.6766200513459482
aa(lp426
F39.0
aF0.02422193565513655
aa(lp427
F40.0
aF0.42284915987467775
aa(lp428
F39.0
aF0.517579423007646
aa(lp429
F44.0
aF0.9021252261979206
aa(lp430
F9.0
aF0.9331130311945889
aa(lp431
F44.0
aF0.8429649356186975
aa(lp432
F9.0
aF0.5217510881841554
aa(lp433
F37.0
aF0.5535941088317081
aa(lp434
F37.0
aF0.2617544301924566
aa(lp435
F40.0
aF0.7021026336151726
aa(lp436
F38.0
aF0.10037084501478288
aa(lp437
F37.0
aF0.8061818689706939
aa(lp438
F37.0
aF0.07205787019410427
aa(lp439
F44.0
aF0.8796076223860942
aa(lp440
F37.0
aF0.8178974477798003
aa(lp441
F38.0
aF0.7874163320232352
aa(lp442
F37.0
aF0.5533259290686433
aa(lp443
F40.0
aF0.8164281738784468
aa(lp444
F38.0
aF0.8467530352607971
aa(lp445
F37.0
aF0.22769623673037104
aa(lp446
F42.0
aF0.06227733488368726
aa(lp447
F40.0
aF0.7970979333745603
aa(lp448
F37.0
aF0.21556547271957976
aa(lp449
F37.0
aF0.3249806202498421
aa(lp450
F63.0
aF0.9488193767787847
aa(lp451
F37.0
aF0.5995081413879049
aa(lp452
F37.0
aF0.7888130972606582
aa(lp453
F40.0
aF0.3384600827042946
aa(lp454
F63.0
aF0.9300989377795827
aa(lp455
F42.0
aF0.525416543998617
aa(lp456
F37.0
aF0.4105426691797216
aa(lp457
F40.0
aF0.7411595038515032
aa(lp458
F37.0
aF0.9831099567881546
aa(lp459
F37.0
aF0.7453369194928365
aa(lp460
F17.0
aF0.9390463361955662
aa(lp461
F37.0
aF0.04199881467993333
aa(lp462
F39.0
aF0.08247429140751918
aa(lp463
F9.0
aF0.7236844280541807
aa(lp464
F38.0
aF0.999680714079151
aa(lp465
F40.0
aF0.593018235723819
aa(lp466
F17.0
aF0.8893335105745751
aa(lp467
F9.0
aF0.9120000750427409
aa(lp468
F39.0
aF0.2612895190888611
aa(lp469
F38.0
aF0.9382750021801207
aa(lp470
F40.0
aF0.9451294393970701
aa(lp471
F9.0
aF0.3836698856785474
aa(lp472
F9.0
aF0.8901629348640429
aa(lp473
F38.0
aF0.8914074954865013
aa(lp474
F37.0
aF0.0516879595370358
aa(lp475
F38.0
aF0.8972946971280811
aa(lp476
F9.0
aF0.844826211535014
aa(lp477
F17.0
aF0.6793493508376803
aa(lp478
F9.0
aF0.5534912395076924
aa(lp479
F37.0
aF0.2624684117280586
aa(lp480
F38.0
aF0.40490513040497733
aa(lp481
F38.0
aF0.8793764890728043
aa(lp482
F44.0
aF0.6309823430440552
aa(lp483
F40.0
aF0.5521688084790847
aa(lp484
F40.0
aF0.7457350260053011
aa(lp485
F40.0
aF0.877460919687675
aa(lp486
F38.0
aF0.8720006908264484
aa(lp487
F37.0
aF0.7270782278350387
aa(lp488
F37.0
aF0.7561267155973639
aa(lp489
F41.0
aF0.4102421137681512
aa(lp490
F37.0
aF0.5298836172817352
aa(lp491
F17.0
aF0.6824434148670958
aa(lp492
F38.0
aF0.5893668614311856
aa(lp493
F37.0
aF0.7886576464017225
aa(lp494
F39.0
aF0.6748762357656106
aa(lp495
F9.0
aF0.5487225047980648
aa(lp496
F38.0
aF0.9112041184240223
aa(lp497
F42.0
aF0.24978652488485767
aa(lp498
F40.0
aF0.9199902236001759
aa(lp499
F40.0
aF0.7372849909547499
aa(lp500
F37.0
aF0.03139633221108614
aa(lp501
F17.0
aF0.762700811403411
aa(lp502
F40.0
aF0.5318454846145949
aa(lp503
F9.0
aF0.40856405102648546
aa(lp504
F42.0
aF0.38845528861075007
aa(lp505
F37.0
aF0.19075103531736773
aa(lp506
F40.0
aF0.9379562805198074
aa(lp507
F40.0
aF0.4336588671129829
aa(lp508
F37.0
aF0.2954080136326024
aa(lp509
F9.0
aF0.6928644570443413
aa(lp510
F9.0
aF0.5928628629881417
aa(lp511
F9.0
aF0.3606784045439165
aa(lp512
F17.0
aF0.7243868592863228
aa(lp513
F37.0
aF0.6559598072732508
aa(lp514
F42.0
aF0.14987184967200345
aa(lp515
F40.0
aF0.5449844020280709
aa(lp516
F40.0
aF0.4221517722341531
aa(lp517
F37.0
aF0.07044251098695671
aa(lp518
F63.0
aF0.9713305332117684
aa(lp519
F9.0
aF0.7079524247732624
aa(lp520
F40.0
aF0.6133732665011471
aa(lp521
F39.0
aF0.1860504135330409
aa(lp522
F38.0
aF0.8033878828915871
aa(lp523
F37.0
aF0.5812821937374566
aa(lp524
F39.0
aF0.4146282642875177
aa(lp525
F9.0
aF0.4935580096959884
aa(lp526
F37.0
aF0.20425549355926767
aa(lp527
F9.0
aF0.9855679917506438
aa(lp528
F44.0
aF0.8832837272480054
aa(lp529
F40.0
aF0.4594862540630806
aa(lp530
F40.0
aF0.404144255409231
aa(lp531
F42.0
aF0.546817197007536
aa(lp532
F17.0
aF0.9448864923145702
aa(lp533
F17.0
aF0.7121367554073275
aa(lp534
F9.0
aF0.8272398424703109
aa(lp535
F40.0
aF0.3696878168203056
aa(lp536
F40.0
aF0.5244608514892681
aa(lp537
F40.0
aF0.6615149388476909
aa(lp538
F9.0
aF0.4754139738842083
aa(lp539
F38.0
aF0.3522459781154041
aa(lp540
F42.0
aF0.2314162389289865
aa(lp541
F40.0
aF0.5536313612355117
aa(lp542
F42.0
aF0.11070500620631517
aa(lp543
F40.0
aF0.4132201789217977
aa(lp544
F44.0
aF0.7694440824376577
aa(lp545
F42.0
aF0.7481027368171821
aa(lp546
F39.0
aF0.2078235808793303
aa(lp547
F38.0
aF0.579426297402879
aa(lp548
F17.0
aF0.7697196857298503
aa(lp549
F37.0
aF0.21781922147569355
aa(lp550
F38.0
aF0.4400680967894554
aa(lp551
F44.0
aF0.9805253884623739
aa(lp552
F9.0
aF0.43368115971357685
aa(lp553
F63.0
aF0.9128601878493496
aa(lp554
F40.0
aF0.44019578732636516
aa(lp555
F39.0
aF0.8357892685317825
aa(lp556
F17.0
aF0.9040941093832242
aa(lp557
F17.0
aF0.8332618692858976
aa(lp558
F38.0
aF0.25574295171474676
aa(lp559
F40.0
aF0.46759730116332954
aa(lp560
F40.0
aF0.27364231223618546
aa(lp561
F38.0
aF0.9111939246514451
aa(lp562
F17.0
aF0.8270824567713254
aa(lp563
F9.0
aF0.8246016643786247
aa(lp564
F38.0
aF0.6737391895003527
aa(lp565
F37.0
aF0.10881582843369242
aa(lp566
F37.0
aF0.07574064752709797
aa(lp567
F9.0
aF0.9154969534099737
aa(lp568
F40.0
aF0.31453982720341866
aa(lp569
F9.0
aF0.724226013502867
aa(lp570
F44.0
aF0.725646951603597
aa(lp571
F17.0
aF0.6798175403000971
aa(lp572
F38.0
aF0.3479906941199626
aa(lp573
F39.0
aF0.3622259823399629
aa(lp574
F37.0
aF0.2063609060285882
aa(lp575
F17.0
aF0.8542730537684956
aa(lp576
F17.0
aF0.779949544419271
aa(lp577
F40.0
aF0.35638880605207746
aa(lp578
F38.0
aF0.7865628382987452
aa(lp579
F44.0
aF0.857659398925824
aa(lp580
F9.0
aF0.9731806320373473
aa(lp581
F17.0
aF0.8294967578925928
aa(lp582
F42.0
aF0.12695587520767246
aa(lp583
F38.0
aF0.8618149642106105
aa(lp584
F44.0
aF0.7284187186965547
aa(lp585
F37.0
aF0.11919968222079733
aa(lp586
F63.0
aF0.8847966805409828
aa(lp587
F9.0
aF0.7636548428065547
aa(lp588
F35.0
aF0.8824541025523517
aa(lp589
F42.0
aF0.09765688901870163
aa(lp590
F9.0
aF0.628431982422092
aa(lp591
F63.0
aF0.9397769687491537
aa(lp592
F40.0
aF0.5186154110802258
aa(lp593
F38.0
aF0.49377010083875844
aa(lp594
F42.0
aF0.07638018550358713
aa(lp595
F42.0
aF0.7226340719869989
aa(lp596
F42.0
aF0.1690265701967582
aa(lp597
F40.0
aF0.4721684382967919
aa(lp598
F40.0
aF0.490420008146048
aa(lp599
F17.0
aF0.7379526068328969
aa(lp600
F9.0
aF0.4476338421601436
aa(lp601
F38.0
aF0.3586505520031233
aa(lp602
F40.0
aF0.5851940648438354
aa(lp603
F35.0
aF0.7335892346187687
aa(lp604
F17.0
aF0.9354134144067441
aa(lp605
F40.0
aF0.6393943613034482
aa(lp606
F40.0
aF0.7873279418743437
aa(lp607
F9.0
aF0.5940461420301285
aa(lp608
F38.0
aF0.317037922919555
aa(lp609
F38.0
aF0.17775099791870755
aa(lp610
F39.0
aF0.9688336210327216
aa(lp611
F40.0
aF0.8926717283460346
aa(lp612
F40.0
aF0.6420012468379259
aa(lp613
F40.0
aF0.8239097791012031
aa(lp614
F40.0
aF0.2791059543019028
aa(lp615
F40.0
aF0.9577112341791976
aa(lp616
F40.0
aF0.889786179681121
aa(lp617
F44.0
aF0.9205983771728291
aa(lp618
F17.0
aF0.745079531553013
aa(lp619
F9.0
aF0.7055971354305924
aa(lp620
F37.0
aF0.029444867236847902
aa(lp621
F39.0
aF0.6763263132422501
aa(lp622
F42.0
aF0.6758279001177273
aa(lp623
F63.0
aF0.88590802617924
aa(lp624
F9.0
aF0.41482485757141035
aa(lp625
F9.0
aF0.8907225707278231
aa(lp626
F9.0
aF0.5782985008800773
aa(lp627
F38.0
aF0.933989274726288
aa(lp628
F42.0
aF0.6849525940545286
aa(lp629
F9.0
aF0.4871950332088884
aa(lp630
F38.0
aF0.25830706782162655
aa(lp631
F44.0
aF0.6728783743449892
aa(lp632
F39.0
aF0.3583103866531509
aa(lp633
F9.0
aF0.8239357413521553
aa(lp634
F39.0
aF0.23476454801771943
aa(lp635
F44.0
aF0.6703364941055123
aa(lp636
F38.0
aF0.8891193734668152
aa(lp637
F40.0
aF0.8130902344588777
aa(lp638
F38.0
aF0.8332940215370028
aa(lp639
F38.0
aF0.04851605723289224
aa(lp640
F9.0
aF0.6460404332953512
aa(lp641
F40.0
aF0.982229960836279
aa(lp642
F42.0
aF0.5185129720974859
aa(lp643
F38.0
aF0.26063285532392855
aa(lp644
F37.0
aF0.10685607543043424
aa(lp645
F9.0
aF0.40860068046354237
aa(lp646
F40.0
aF0.252707112716841
aa(lp647
F9.0
aF0.4512882531612703
aa(lp648
F40.0
aF0.8773695484973992
aa(lp649
F9.0
aF0.8723279000827316
aa(lp650
F63.0
aF0.9305900069796332
aa(lp651
F17.0
aF0.8224692438343192
aa(lp652
F44.0
aF0.7593671323381543
aa(lp653
F39.0
aF0.2128812249760859
aa(lp654
F40.0
aF0.3703729999305545
aa(lp655
F40.0
aF0.8574078675480019
aa(lp656
F38.0
aF0.05398979785825924
aa(lp657
F38.0
aF0.3056994618200662
aa(lp658
F40.0
aF0.26131061685859286
aa(lp659
F9.0
aF0.36618283181662925
aa(lp660
F38.0
aF0.8288691575154302
aa(lp661
F37.0
aF0.15910189002385958
aa(lp662
F40.0
aF0.896900076477243
aa(lp663
F9.0
aF0.4281618743923374
aa(lp664
F9.0
aF0.9019248004806301
aa(lp665
F40.0
aF0.2812331168690071
aa(lp666
F63.0
aF0.9341926262583244
aa(lp667
F17.0
aF0.6752365173071986
aa(lp668
F42.0
aF0.4523347383877579
aa(lp669
F9.0
aF0.7876421077043718
aa(lp670
F9.0
aF0.7466041251629193
aa(lp671
F40.0
aF0.7905005093439998
aa(lp672
F9.0
aF0.41346625137897264
aa(lp673
F9.0
aF0.4124382145449846
aa(lp674
F40.0
aF0.9583482194522038
aa(lp675
F9.0
aF0.45778557139929554
aa(lp676
F38.0
aF0.42515217483855117
aa(lp677
F42.0
aF0.07599715975599654
aa(lp678
F40.0
aF0.5098054771822077
aa(lp679
F17.0
aF0.9458847434062297
aa(lp680
F40.0
aF0.5029737286335955
aa(lp681
F17.0
aF0.7702917170092527
aa(lp682
F40.0
aF0.27274472342980355
aa(lp683
F44.0
aF0.6780794954424628
aa(lp684
F40.0
aF0.8965787683206231
aa(lp685
F40.0
aF0.9114188608912501
aa(lp686
F38.0
aF0.02028304017109776
aa(lp687
F9.0
aF0.8126287624697822
aa(lp688
F40.0
aF0.9508758878673933
aa(lp689
F42.0
aF0.412718680057672
aa(lp690
F40.0
aF0.3145520641547458
aa(lp691
F9.0
aF0.4648419518243113
aa(lp692
F40.0
aF0.88342122506132
aa(lp693
F17.0
aF0.9426898921377146
aa(lp694
F38.0
aF0.2775786512916474
aa(lp695
F9.0
aF0.8594148621185997
aa(lp696
F42.0
aF0.3146607227621523
aa(lp697
F38.0
aF0.9353915107678337
aa(lp698
F63.0
aF0.906895070727998
aa(lp699
F44.0
aF0.7948521900032418
aa(lp700
F40.0
aF0.8771359106630744
aa(lp701
F40.0
aF0.4460623177759252
aa(lp702
F38.0
aF0.7206977730068406
aa(lp703
F9.0
aF0.5626990650088335
aa(lp704
F40.0
aF0.7680421176278517
aa(lp705
F9.0
aF0.6687729019571289
aa(lp706
F39.0
aF0.155197347658253
aa(lp707
F9.0
aF0.9694763085703517
aa(lp708
F37.0
aF0.15232642320463402
aa(lp709
F17.0
aF0.8935582859319977
aa(lp710
F41.0
aF0.82169107718302
aa(lp711
F42.0
aF0.02823897093969289
aa(lp712
F17.0
aF0.8521658033615653
aa(lp713
F35.0
aF0.7602979770406381
aa(lp714
F9.0
aF0.6677309609957595
aa(lp715
F38.0
aF0.07510401872248469
aa(lp716
F40.0
aF0.8626711824146717
aa(lp717
F38.0
aF0.46750784492778524
aa(lp718
F37.0
aF0.056580904468365806
aa(lp719
F40.0
aF0.7195824440233347
aa(lp720
F63.0
aF0.9079308227417282
aa(lp721
F9.0
aF0.5852420476481027
aa(lp722
F37.0
aF0.1446757011388874
aa(lp723
F17.0
aF0.8631500967495387
aa(lp724
F9.0
aF0.7537533693858814
aa(lp725
F40.0
aF0.8228797874394912
aa(lp726
F35.0
aF0.9143850296050896
aa(lp727
F9.0
aF0.6633880229840924
aa(lp728
F42.0
aF0.5566931823725785
aa(lp729
F37.0
aF0.10736887230834673
aa(lp730
F38.0
aF0.06197668929195819
aa(lp731
F40.0
aF0.6937876594594317
aa(lp732
F9.0
aF0.5998813824159183
aa(lp733
F42.0
aF0.32924959884380106
aa(lp734
F9.0
aF0.44035159699118537
aa(lp735
F9.0
aF0.6821979079941792
aa(lp736
F40.0
aF0.6400152968899131
aa(lp737
F38.0
aF0.9718399947048163
aa(lp738
F40.0
aF0.3303566609284336
aa(lp739
F35.0
aF0.7397573416960331
aa(lp740
F40.0
aF0.6951830809709135
aa(lp741
F35.0
aF0.8513732901997638
aa(lp742
F9.0
aF0.4097769718140285
aa(lp743
F40.0
aF0.907522679243065
aa(lp744
F38.0
aF0.5894696762481944
aa(lp745
F63.0
aF0.9216983157181244
aa(lp746
F17.0
aF0.7938867154337798
aa(lp747
F63.0
aF0.9449151995296513
aa(lp748
F38.0
aF0.16165375993169487
aa(lp749
F44.0
aF0.7081754779157424
aa(lp750
F40.0
aF0.47397304824514525
aa(lp751
F17.0
aF0.9717097177263142
aa(lp752
F63.0
aF0.8838777946608014
aa(lp753
F37.0
aF0.19259093436945157
aa(lp754
F39.0
aF0.9085641935164396
aa(lp755
F9.0
aF0.6975968557064611
aa(lp756
F9.0
aF0.9704458621439259
aa(lp757
F9.0
aF0.5865173383336117
aa(lp758
F44.0
aF0.9510799312559569
aa(lp759
F40.0
aF0.4173743639933864
aa(lp760
F40.0
aF0.4166319347001853
aa(lp761
F40.0
aF0.5279600666097097
aa(lp762
F42.0
aF0.5744095310227775
aa(lp763
F40.0
aF0.7771620413276418
aa(lp764
F40.0
aF0.9673511254489964
aa(lp765
F9.0
aF0.6961365829135838
aa(lp766
F42.0
aF0.6294038620930914
aa(lp767
F40.0
aF0.9627926461076969
aa(lp768
F38.0
aF0.09029871708169357
aa(lp769
F40.0
aF0.5882623092049316
aa(lp770
F17.0
aF0.6804474803808672
aa(lp771
F9.0
aF0.6885052657523071
aa(lp772
F40.0
aF0.24662976291473568
aa(lp773
F40.0
aF0.3060016631651772
aa(lp774
F40.0
aF0.6521820182787076
aa(lp775
F39.0
aF0.6847172917173047
aa(lp776
F40.0
aF0.44052948957418775
aa(lp777
F40.0
aF0.33877448366770135
aa(lp778
F42.0
aF0.9011799535690826
aa(lp779
F37.0
aF0.12583593696896286
aa(lp780
F38.0
aF0.661293599557382
aa(lp781
F40.0
aF0.46991432175306536
aa(lp782
F38.0
aF0.766448533380131
aa(lp783
F37.0
aF0.22400820180299524
aa(lp784
F44.0
aF0.7644410621277355
aa(lp785
F40.0
aF0.43803741472582286
aa(lp786
F38.0
aF0.0942378952686589
aa(lp787
F39.0
aF0.4212849870320404
aa(lp788
F9.0
aF0.9449069755103124
aa(lp789
F17.0
aF0.9640046774966691
aa(lp790
F39.0
aF0.871194628280944
aa(lp791
F40.0
aF0.3083044956501397
aa(lp792
F38.0
aF0.39781108720249575
aa(lp793
F44.0
aF0.9236558710173198
aa(lp794
F44.0
aF0.8847466676180128
aa(lp795
F44.0
aF0.8632910351010548
aa(lp796
F17.0
aF0.853387401286867
aa(lp797
F40.0
aF0.5043736816929901
aa(lp798
F9.0
aF0.9229128928122947
aa(lp799
F40.0
aF0.9906790913589442
aa(lp800
F9.0
aF0.7658632226558677
aa(lp801
F39.0
aF0.5915714570703823
aa(lp802
F42.0
aF0.13540566620012473
aa(lp803
F39.0
aF0.1442328724275413
aa(lp804
F40.0
aF0.6306529536318656
aa(lp805
F40.0
aF0.5216073860355925
aa(lp806
F40.0
aF0.3960045619726825
aa(lp807
F39.0
aF0.5822485951929813
aa(lp808
F38.0
aF0.7346524556050441
aa(lp809
F40.0
aF0.2944560312898246
aa(lp810
F37.0
aF0.149287109564884
aa(lp811
F38.0
aF0.7623008231083974
aa(lp812
F38.0
aF0.15507462408715855
aa(lp813
F9.0
aF0.6986441821387719
aa(lp814
F40.0
aF0.6266963012203981
aa(lp815
F39.0
aF0.10356892656670702
aa(lp816
F42.0
aF0.07765281822142933
aa(lp817
F37.0
aF0.08164637932297594
aa(lp818
F9.0
aF0.477241592284013
aa(lp819
F9.0
aF0.5257165932999578
aa(lp820
F40.0
aF0.5173505976316195
aa(lp821
F42.0
aF0.9377437301226321
aa(lp822
F42.0
aF0.21291250324978536
aa(lp823
F17.0
aF0.7241845786004542
aa(lp824
F9.0
aF0.9087118835436517
aa(lp825
F42.0
aF0.19885440748481362
aa(lp826
F38.0
aF0.19847065953542983
aa(lp827
F39.0
aF0.32716250896557614
aa(lp828
F40.0
aF0.33892543438308304
aa(lp829
F38.0
aF0.31203675530256075
aa(lp830
F9.0
aF0.7552420009574354
aa(lp831
F44.0
aF0.9166779197282828
aa(lp832
F40.0
aF0.6664267249018785
aa(lp833
F40.0
aF0.7239598777831778
aa(lp834
F63.0
aF0.989368981124167
aa(lp835
F42.0
aF0.1832661350432958
aa(lp836
F38.0
aF0.22247808088074067
aa(lp837
F39.0
aF0.027086778393402594
aa(lp838
F17.0
aF0.7296098360320399
aa(lp839
F38.0
aF0.02624794253281193
aa(lp840
F38.0
aF0.9792975331109226
aa(lp841
F38.0
aF0.8759148837730554
aa(lp842
F9.0
aF0.7071865462459554
aa(lp843
F9.0
aF0.6262529907590445
aa(lp844
F35.0
aF0.7446047375311414
aa(lp845
F40.0
aF0.8542002680604438
aa(lp846
F37.0
aF0.0944243371308886
aa(lp847
F17.0
aF0.8584934632974741
aa(lp848
F9.0
aF0.4941629871046142
aa(lp849
F9.0
aF0.5716307108108881
aa(lp850
F40.0
aF0.6500672914244263
aa(lp851
F40.0
aF0.7737322082812621
aa(lp852
F37.0
aF0.1019951443785847
aa(lp853
F63.0
aF0.9387434318333739
aa(lp854
F37.0
aF0.1402019693404802
aa(lp855
F44.0
aF0.9979387605675514
aa(lp856
F17.0
aF0.7020356741203699
aa(lp857
F41.0
aF0.445439670385349
aa(lp858
F9.0
aF0.3685403058020293
aa(lp859
F40.0
aF0.4205559000218074
aa(lp860
F63.0
aF0.9730906893372047
aa(lp861
F40.0
aF0.5261707942043956
aa(lp862
F40.0
aF0.37985009273231135
aa(lp863
F40.0
aF0.8512482041992587
aa(lp864
F40.0
aF0.8130604108392043
aa(lp865
F40.0
aF0.9540939467953158
aa(lp866
F9.0
aF0.9771234562765652
aa(lp867
F37.0
aF0.11470067655857605
aa(lp868
F38.0
aF0.25891947683554806
aa(lp869
F17.0
aF0.8970863733442445
aa(lp870
F38.0
aF0.40662824554552046
aa(lp871
F17.0
aF0.6986107262773223
aa(lp872
F40.0
aF0.4476982138259313
aa(lp873
F41.0
aF0.9681446851319218
aa(lp874
F38.0
aF0.665454800498023
aa(lp875
F40.0
aF0.3901420319694144
aa(lp876
F40.0
aF0.29275504822497367
aa(lp877
F40.0
aF0.5498371178500171
aa(lp878
F44.0
aF0.8951192551097691
aa(lp879
F40.0
aF0.3699877731826572
aa(lp880
F40.0
aF0.5505695094686147
aa(lp881
F9.0
aF0.8868635691582503
aa(lp882
F41.0
aF0.8249295355158183
aa(lp883
F38.0
aF0.08772170736677286
aa(lp884
F9.0
aF0.6245712783532765
aa(lp885
F9.0
aF0.642872572262097
aa(lp886
F40.0
aF0.8085584906563664
aa(lp887
F38.0
aF0.28154387838598555
aa(lp888
F63.0
aF0.9259179741515257
aa(lp889
F39.0
aF0.23255821869333285
aa(lp890
F63.0
aF0.9515542195149029
aa(lp891
F9.0
aF0.38721289639497575
aa(lp892
F40.0
aF0.8921937617623903
aa(lp893
F17.0
aF0.9316401706985724
aa(lp894
F35.0
aF0.7384521447961082
aa(lp895
F40.0
aF0.8006581359505484
aa(lp896
F39.0
aF0.21552127684824615
aa(lp897
F9.0
aF0.8011868598872071
aa(lp898
F44.0
aF0.68192607213967
aa(lp899
F9.0
aF0.42317442266379707
aa(lp900
F44.0
aF0.9737067917321911
aa(lp901
F9.0
aF0.8419077282701558
aa(lp902
F40.0
aF0.8744656599344987
aa(lp903
F38.0
aF0.23017358652518857
aa(lp904
F38.0
aF0.7496463309875447
aa(lp905
F44.0
aF0.9787110050160084
aa(lp906
F40.0
aF0.717943481457798
aa(lp907
F9.0
aF0.4127019789688694
aa(lp908
F9.0
aF0.4576974086311887
aa(lp909
F42.0
aF0.25607041900738037
aa(lp910
F9.0
aF0.4068455106628913
aa(lp911
F40.0
aF0.8939293626248235
aa(lp912
F35.0
aF0.9117655906759563
aa(lp913
F9.0
aF0.6827581181274429
aa(lp914
F40.0
aF0.9255503047631707
aa(lp915
F40.0
aF0.9197533451697147
aa(lp916
F38.0
aF0.9885536692680773
aa(lp917
F44.0
aF0.7337794428792132
aa(lp918
F9.0
aF0.5012092528885224
aa(lp919
F9.0
aF0.9113782573854927
aa(lp920
F9.0
aF0.6887110379685832
aa(lp921
F40.0
aF0.966495290722706
aa(lp922
F40.0
aF0.5390322175438477
aa(lp923
F9.0
aF0.6075561490870087
aa(lp924
F40.0
aF0.6263337026144687
aa(lp925
F40.0
aF0.5949060212488294
aa(lp926
F44.0
aF0.8829361005714015
aa(lp927
F40.0
aF0.8895446130496755
aa(lp928
F40.0
aF0.6175176695181699
aa(lp929
F40.0
aF0.7617948080535412
aa(lp930
F42.0
aF0.8818696753853703
aa(lp931
F63.0
aF0.9557068168595664
aa(lp932
F37.0
aF0.18250437872292388
aa(lp933
F17.0
aF0.6966853669170313
aa(lp934
F9.0
aF0.834234178266249
aa(lp935
F40.0
aF0.3528508460704099
aa(lp936
F38.0
aF0.2590629025649226
aa(lp937
F42.0
aF0.9411729770399713
aa(lp938
F38.0
aF0.8462702568440158
aa(lp939
F40.0
aF0.7498977703320389
aa(lp940
F39.0
aF0.5281073226614428
aa(lp941
F44.0
aF0.7705738763536227
aa(lp942
F9.0
aF0.8895064009084389
aa(lp943
F38.0
aF0.6846345394775671
aa(lp944
F40.0
aF0.24317132306042577
aa(lp945
F37.0
aF0.16348664692962375
aa(lp946
F40.0
aF0.4244805328958158
aa(lp947
F40.0
aF0.5755139622687006
aa(lp948
F38.0
aF0.698473724050058
aa(lp949
F42.0
aF0.6842073750715133
aa(lp950
F9.0
aF0.47513285020142154
aa(lp951
F38.0
aF0.16924735773331423
aa(lp952
F9.0
aF0.4643913450490921
aa(lp953
F37.0
aF0.06891078366147843
aa(lp954
F39.0
aF0.46038170612656176
aa(lp955
F63.0
aF0.956796938761601
aa(lp956
F9.0
aF0.3865175689525294
aa(lp957
F38.0
aF0.1945229297692181
aa(lp958
F40.0
aF0.71750505030278
aa(lp959
F42.0
aF0.7832616493945281
aa(lp960
F44.0
aF0.8993377754542409
aa(lp961
F40.0
aF0.7217087941169215
aa(lp962
F39.0
aF0.5074554446457228
aa(lp963
F37.0
aF0.0369478212512422
aa(lp964
F9.0
aF0.8506532107142428
aa(lp965
F40.0
aF0.2913013010944856
aa(lp966
F39.0
aF0.3575491598581809
aa(lp967
F37.0
aF0.1159498091855766
aa(lp968
F40.0
aF0.955113791203162
aa(lp969
F38.0
aF0.6241000403788781
aa(lp970
F40.0
aF0.6357581913827351
aa(lp971
F17.0
aF0.9573024390727222
aa(lp972
F35.0
aF0.843540438521443
aa(lp973
F40.0
aF0.4633541677179363
aa(lp974
F9.0
aF0.6803750150696649
aa(lp975
F40.0
aF0.25102150346182145
aa(lp976
F41.0
aF0.4598056319589911
aa(lp977
F42.0
aF0.7608820704605977
aa(lp978
F9.0
aF0.8778758757441757
aa(lp979
F39.0
aF0.775096870990528
aa(lp980
F9.0
aF0.6901527702519595
aa(lp981
F44.0
aF0.8520367001945315
aa(lp982
F40.0
aF0.7357876296228091
aa(lp983
F42.0
aF0.2115441268827832
aa(lp984
F40.0
aF0.4036498112882535
aa(lp985
F39.0
aF0.2816421914327958
aa(lp986
F9.0
aF0.8311076668678484
aa(lp987
F42.0
aF0.5203589393788954
aa(lp988
F9.0
aF0.8684960769365823
aa(lp989
F40.0
aF0.4226715557441023
aa(lp990
F35.0
aF0.8767891902911428
aa(lp991
F9.0
aF0.5087793560111934
aa(lp992
F39.0
aF0.6164597835032133
aa(lp993
F44.0
aF0.923561657561264
aa(lp994
F17.0
aF0.6917310594930205
aa(lp995
F9.0
aF0.5243601171467925
aa(lp996
F38.0
aF0.39284616800288175
aa(lp997
F40.0
aF0.3938603311819868
aa(lp998
F42.0
aF0.07795181076220374
aa(lp999
F40.0
aF0.3500146370382055
aa(lp1000
F40.0
aF0.9406641567557434
aa(lp1001
F39.0
aF0.0858699616476827
aa(lp1002
F9.0
aF0.6797301068459626
aa(lp1003
F38.0
aF0.5467012254941109
aa(lp1004
F39.0
aF0.9321631446901927
aa(lp1005
F42.0
aF0.28195245572884914
aa(lp1006
F9.0
aF0.6129891013099544
aa(lp1007
F40.0
aF0.5704281858142559
aa(lp1008
F39.0
aF0.67300271911056
aa(lp1009
F38.0
aF0.8759774190115245
aa(lp1010
F35.0
aF0.8232563372637715
aa(lp1011
F63.0
aF0.9179324117568264
aa(lp1012
F41.0
aF0.6010471268429849
aa(lp1013
F39.0
aF0.7987324124546202
aa(lp1014
F40.0
aF0.23945989681884586
aa(lp1015
F38.0
aF0.3497039530191023
aa(lp1016
F9.0
aF0.41257033534755516
aa(lp1017
F38.0
aF0.7892474526781155
aa(lp1018
F9.0
aF0.6187817456896779
aa(lp1019
F40.0
aF0.6056316102659504
aa(lp1020
F9.0
aF0.5930488448179858
aa(lp1021
F9.0
aF0.6332602008397126
aa(lp1022
F40.0
aF0.608535080860151
aa(lp1023
F40.0
aF0.7423259238364897
aa(lp1024
F44.0
aF0.9444881265612006
aa(lp1025
F40.0
aF0.638707917520541
aa(lp1026
F40.0
aF0.6746216365991657
aa(lp1027
F38.0
aF0.7484076214179113
aa(lp1028
F40.0
aF0.8072651269662909
aa(lp1029
F40.0
aF0.5764380422876542
aa(lp1030
F9.0
aF0.45263306144455434
aa(lp1031
F9.0
aF0.9838631780847189
aa(lp1032
F40.0
aF0.8814784833214033
aa(lp1033
F42.0
aF0.675725881653181
aa(lp1034
F40.0
aF0.4597588412157181
aa(lp1035
F40.0
aF0.43007128291381436
aa(lp1036
F40.0
aF0.9510581959713571
aa(lp1037
F9.0
aF0.9521942223938321
aa(lp1038
F38.0
aF0.7934807302987242
aa(lp1039
F17.0
aF0.8936139607673692
aa(lp1040
F38.0
aF0.1291477676809183
aa(lp1041
F40.0
aF0.7293431297079551
aa(lp1042
F17.0
aF0.8160906794880273
aa(lp1043
F17.0
aF0.7290018005190305
aa(lp1044
F9.0
aF0.9271446210775882
aa(lp1045
F38.0
aF0.7324831559182989
aa(lp1046
F38.0
aF0.7266588723249364
aa(lp1047
F35.0
aF0.7387563998777764
aa(lp1048
F40.0
aF0.7168794458413927
aa(lp1049
F17.0
aF0.9417701508226758
aa(lp1050
F42.0
aF0.4687925268645739
aa(lp1051
F9.0
aF0.46275250002731455
aa(lp1052
F40.0
aF0.5282810347347242
aa(lp1053
F9.0
aF0.8176459717019476
aa(lp1054
F38.0
aF0.9776694056078057
aa(lp1055
F40.0
aF0.596706702846353
aa(lp1056
F44.0
aF0.79197234021202
aa(lp1057
F40.0
aF0.5099545125728154
aa(lp1058
F42.0
aF0.959388627394336
aa(lp1059
F9.0
aF0.830084862444878
aa(lp1060
F40.0
aF0.7687528567055436
aa(lp1061
F38.0
aF0.2072008993125887
aa(lp1062
F17.0
aF0.96103511559516
aa(lp1063
F40.0
aF0.7403610576492413
aa(lp1064
F42.0
aF0.41000105554844146
aa(lp1065
F38.0
aF0.6478923626367714
aa(lp1066
F9.0
aF0.5851058571855122
aa(lp1067
F40.0
aF0.47624065866447596
aa(lp1068
F38.0
aF0.5177592651808455
aa(lp1069
F17.0
aF0.8509344871539211
aa(lp1070
F40.0
aF0.5315044507303847
aa(lp1071
F17.0
aF0.9400893551014369
aa(lp1072
F38.0
aF0.8070364145212046
aa(lp1073
F40.0
aF0.6953350086990868
aa(lp1074
F9.0
aF0.6064416196319227
aa(lp1075
F38.0
aF0.16596001313495573
aa(lp1076
F17.0
aF0.8273655476473382
aa(lp1077
F9.0
aF0.47692474073913704
aa(lp1078
F40.0
aF0.2718250547185249
aa(lp1079
F38.0
aF0.1574353479860542
aa(lp1080
F40.0
aF0.4964072301977238
aa(lp1081
F42.0
aF0.16361208913751407
aa(lp1082
F40.0
aF0.5161396150563802
aa(lp1083
F9.0
aF0.8123516889827114
aa(lp1084
F38.0
aF0.8663616428486557
aa(lp1085
F40.0
aF0.427518441277516
aa(lp1086
F39.0
aF0.08517170433735892
aa(lp1087
F9.0
aF0.8148625271954785
aa(lp1088
F9.0
aF0.46960692090042316
aa(lp1089
F44.0
aF0.8307104529549826
aa(lp1090
F9.0
aF0.6935411548778113
aa(lp1091
F17.0
aF0.9977887813786325
aa(lp1092
F40.0
aF0.7888210317569944
aa(lp1093
F40.0
aF0.6360159923936234
aa(lp1094
F44.0
aF0.9098563108637578
aa(lp1095
F38.0
aF0.33675337867017285
aa(lp1096
F38.0
aF0.3685787114963554
aa(lp1097
F40.0
aF0.37893840690192093
aa(lp1098
F39.0
aF0.6018685042158014
aa(lp1099
F38.0
aF0.1638956893224714
aa(lp1100
F9.0
aF0.7427209734360756
aa(lp1101
F40.0
aF0.4132595299009245
aa(lp1102
F40.0
aF0.458906547880881
aa(lp1103
F42.0
aF0.12263045545797589
aa(lp1104
F38.0
aF0.056010066401995136
aa(lp1105
F40.0
aF0.5824651469068797
aa(lp1106
F9.0
aF0.3878798733501481
aa(lp1107
F38.0
aF0.9127136359481713
aa(lp1108
F44.0
aF0.8395232380095498
aa(lp1109
F40.0
aF0.9457005454327031
aa(lp1110
F38.0
aF0.7645218934037918
aa(lp1111
F9.0
aF0.6869026808691425
aa(lp1112
F17.0
aF0.9810293588310043
aa(lp1113
F9.0
aF0.9122723591634317
aa(lp1114
F9.0
aF0.7458651156856803
aa(lp1115
F39.0
aF0.17365213973490495
aa(lp1116
F9.0
aF0.4356911964118616
aa(lp1117
F17.0
aF0.6909964605506834
aa(lp1118
F39.0
aF0.9938118690184545
aa(lp1119
F42.0
aF0.6779825873333051
aa(lp1120
F42.0
aF0.5646684202368016
aa(lp1121
F38.0
aF0.2745409351185698
aa(lp1122
F38.0
aF0.5747085044297924
aa(lp1123
F17.0
aF0.9248682079376215
aa(lp1124
F44.0
aF0.6121928311213203
aa(lp1125
F42.0
aF0.5953973841823458
aa(lp1126
F40.0
aF0.572579743860117
aa(lp1127
F42.0
aF0.040920599551571436
aa(lp1128
F38.0
aF0.22987527439067634
aa(lp1129
F40.0
aF0.49326336183376623
aa(lp1130
F42.0
aF0.663175088034858
aa(lp1131
F44.0
aF0.9769012073080711
aa(lp1132
F9.0
aF0.8987741998778022
aa(lp1133
F9.0
aF0.41880439378339646
aa(lp1134
F38.0
aF0.2546260481381905
aa(lp1135
F40.0
aF0.5179016369831305
aa(lp1136
F39.0
aF0.913979849094139
aa(lp1137
F9.0
aF0.6782654986457288
aa(lp1138
F44.0
aF0.8353235021925779
aa(lp1139
F40.0
aF0.5233025369133799
aa(lp1140
F40.0
aF0.9740111895812026
aa(lp1141
F42.0
aF0.18116748805829255
aa(lp1142
F9.0
aF0.393702740989642
aa(lp1143
F40.0
aF0.44299013488982647
aa(lp1144
F42.0
aF0.478684174251015
aa(lp1145
F42.0
aF0.5409186855972904
aa(lp1146
F63.0
aF0.8989767429288749
aa(lp1147
F17.0
aF0.970281400239366
aa(lp1148
F9.0
aF0.5677299901377766
aa(lp1149
F9.0
aF0.7589755968211015
aa(lp1150
F9.0
aF0.4072687224545993
aa(lp1151
F40.0
aF0.4677271816023797
aa(lp1152
F39.0
aF0.9063963409042386
aa(lp1153
F38.0
aF0.16686050137209696
aa(lp1154
F39.0
aF0.3212069184652488
aa(lp1155
F40.0
aF0.8206094856347025
aa(lp1156
F42.0
aF0.5246444511061732
aa(lp1157
F9.0
aF0.7567784593067091
aa(lp1158
F9.0
aF0.8027215937949709
aa(lp1159
F38.0
aF0.8665272128466951
aa(lp1160
F39.0
aF0.3099911975701272
aa(lp1161
F9.0
aF0.7160322426745694
aa(lp1162
F42.0
aF0.7913938038802906
aa(lp1163
F9.0
aF0.7010731661050195
aa(lp1164
F40.0
aF0.26293700667637787
aa(lp1165
F39.0
aF0.6762915329524262
aa(lp1166
F38.0
aF0.6033308192264454
aa(lp1167
F9.0
aF0.926022805251348
aa(lp1168
F9.0
aF0.6245877901047228
aa(lp1169
F38.0
aF0.8062299587252841
aa(lp1170
F38.0
aF0.3854067209963224
aa(lp1171
F40.0
aF0.8420643872219248
aa(lp1172
F38.0
aF0.3177342793373823
aa(lp1173
F42.0
aF0.2494156540792028
aa(lp1174
F9.0
aF0.5514513706957694
aa(lp1175
F42.0
aF0.38711503253896845
aa(lp1176
F38.0
aF0.45277813218523094
aa(lp1177
F42.0
aF0.43349644238235907
aa(lp1178
F42.0
aF0.7992453312530057
aa(lp1179
F38.0
aF0.768645000727509
aa(lp1180
F38.0
aF0.9882717786529374
aa(lp1181
F40.0
aF0.692199184163702
aa(lp1182
F39.0
aF0.24467504051764363
aa(lp1183
F9.0
aF0.7855305828315887
aa(lp1184
F40.0
aF0.6141452628203791
aa(lp1185
F38.0
aF0.23298974629778557
aa(lp1186
F42.0
aF0.8947082186084844
aa(lp1187
F38.0
aF0.9062961183677327
aa(lp1188
F40.0
aF0.7230157403293531
aa(lp1189
F42.0
aF0.19853210886980957
aa(lp1190
F9.0
aF0.5474492219750152
aa(lp1191
F38.0
aF0.981165118515417
aa(lp1192
F17.0
aF0.7231952063129055
aa(lp1193
F38.0
aF0.4990112173962308
aa(lp1194
F42.0
aF0.3842607230641342
aa(lp1195
F41.0
aF0.12913545108034724
aa(lp1196
F44.0
aF0.8628183044050787
aa(lp1197
F9.0
aF0.4097918896615384
aa(lp1198
F9.0
aF0.9912037814179476
aa(lp1199
F9.0
aF0.6850606419168292
aa(lp1200
F40.0
aF0.5922169595920828
aa(lp1201
F42.0
aF0.5180511305408305
aa(lp1202
F40.0
aF0.27642391589210724
aa(lp1203
F9.0
aF0.35907934537953656
aa(lp1204
F38.0
aF0.5571068313291124
aa(lp1205
F38.0
aF0.9005662811040509
aa(lp1206
F38.0
aF0.6847238902662104
aa(lp1207
F44.0
aF0.687036630219429
aa(lp1208
F38.0
aF0.8817661552235195
aa(lp1209
F39.0
aF0.7159606482600998
aa(lp1210
F38.0
aF0.7762398752284879
aa(lp1211
F9.0
aF0.3583546983393245
aa(lp1212
F9.0
aF0.8301347006033857
aa(lp1213
F40.0
aF0.833063672907735
aa(lp1214
F9.0
aF0.7446001374936928
aa(lp1215
F38.0
aF0.6802893784249406
aa(lp1216
F40.0
aF0.6598918219010521
aa(lp1217
F9.0
aF0.42168256276053484
aa(lp1218
F9.0
aF0.7867948002196019
aa(lp1219
F38.0
aF0.23911552287409235
aa(lp1220
F17.0
aF0.933878797784593
aa(lp1221
F42.0
aF0.557925902824035
aa(lp1222
F38.0
aF0.45599147406262425
aa(lp1223
F40.0
aF0.37765611797067866
aa(lp1224
F38.0
aF0.3868601134768374
aa(lp1225
F9.0
aF0.9543011323727847
aa(lp1226
F63.0
aF0.9110148879106267
aa(lp1227
F38.0
aF0.42359894030119144
aa(lp1228
F44.0
aF0.8314362376250376
aa(lp1229
F40.0
aF0.4676410375035523
aa(lp1230
F40.0
aF0.27985750291662925
aa(lp1231
F40.0
aF0.6814389652276142
aa(lp1232
F9.0
aF0.7777183117281188
aa(lp1233
F40.0
aF0.9250007202211872
aa(lp1234
F42.0
aF0.17963954549478517
aa(lp1235
F40.0
aF0.6640667540607363
aa(lp1236
F40.0
aF0.23976549799794478
aa(lp1237
F40.0
aF0.9394574189043338
aa(lp1238
F40.0
aF0.8714938951726561
aa(lp1239
F40.0
aF0.5295089303408903
aa(lp1240
F38.0
aF0.6494706069394254
aa(lp1241
F42.0
aF0.10189069092427613
aa(lp1242
F40.0
aF0.5278272107845744
aa(lp1243
F40.0
aF0.9290317023734793
aa(lp1244
F42.0
aF0.8129727928070489
aa(lp1245
F40.0
aF0.2936906699924804
aa(lp1246
F40.0
aF0.9777820998372228
aa(lp1247
F17.0
aF0.8918016272464355
aa(lp1248
F44.0
aF0.7348268884517166
aa(lp1249
F40.0
aF0.7433218137113614
aa(lp1250
F17.0
aF0.7281831804558497
aa(lp1251
F39.0
aF0.7166707410080724
aa(lp1252
F42.0
aF0.3094240567297735
aa(lp1253
F41.0
aF0.5428707624156024
aa(lp1254
F9.0
aF0.6387837120839621
aa(lp1255
F40.0
aF0.5858327071441644
aa(lp1256
F9.0
aF0.5250363259766636
aa(lp1257
F9.0
aF0.7470355627952963
aa(lp1258
F44.0
aF0.7990406339100753
aa(lp1259
F42.0
aF0.4748228201195139
aa(lp1260
F44.0
aF0.9285185530716326
aa(lp1261
F40.0
aF0.9409276642125854
aa(lp1262
F40.0
aF0.38300204863971204
aa(lp1263
F39.0
aF0.24903028242741995
aa(lp1264
F9.0
aF0.6436624324767224
aa(lp1265
F40.0
aF0.24724322666566764
aa(lp1266
F17.0
aF0.8476299445125964
aa(lp1267
F38.0
aF0.023926951937635204
aa(lp1268
F40.0
aF0.5610915229017118
aa(lp1269
F17.0
aF0.8397195806314407
aa(lp1270
F38.0
aF0.5188949513048032
aa(lp1271
F40.0
aF0.7537359960877825
aa(lp1272
F38.0
aF0.9137371188501348
aa(lp1273
F9.0
aF0.8677024927409172
aa(lp1274
F39.0
aF0.5989812276879354
aa(lp1275
F9.0
aF0.6446707798334862
aa(lp1276
F42.0
aF0.43360345644159687
aa(lp1277
F9.0
aF0.7404395506611282
aa(lp1278
F9.0
aF0.8643456204515009
aa(lp1279
F40.0
aF0.9807023558713935
aa(lp1280
F44.0
aF0.8207517821423027
aa(lp1281
F9.0
aF0.7203360689356373
aa(lp1282
F9.0
aF0.40058583771349243
aa(lp1283
F40.0
aF0.7416325092352722
aa(lp1284
F17.0
aF0.868166859552698
aa(lp1285
F40.0
aF0.3861790801864433
aa(lp1286
F38.0
aF0.7817564773343101
aa(lp1287
F9.0
aF0.787349753534228
aa(lp1288
F17.0
aF0.6836792917112456
aa(lp1289
F39.0
aF0.5050208462219093
aa(lp1290
F9.0
aF0.7887186305172688
aa(lp1291
F9.0
aF0.9964620811394922
aa(lp1292
F17.0
aF0.7996599079259328
aa(lp1293
F38.0
aF0.46354809370069366
aa(lp1294
F40.0
aF0.6448066040747145
aa(lp1295
F40.0
aF0.8354155391673422
aa(lp1296
F38.0
aF0.2734706949163015
aa(lp1297
F44.0
aF0.9759011939119105
aa(lp1298
F40.0
aF0.4394918387553075
aa(lp1299
F38.0
aF0.6417002330726131
aa(lp1300
F9.0
aF0.46606981259078845
aa(lp1301
F17.0
aF0.8884750648252231
aa(lp1302
F17.0
aF0.9215188243437201
aa(lp1303
F9.0
aF0.550314638327206
aa(lp1304
F40.0
aF0.3824555260373146
aa(lp1305
F17.0
aF0.7108626822780311
aa(lp1306
F40.0
aF0.6445133271793262
aa(lp1307
F40.0
aF0.6280785624134079
aa(lp1308
F17.0
aF0.8273188746683192
aa(lp1309
F40.0
aF0.9082654493954372
aa(lp1310
F40.0
aF0.2653542518863406
aa(lp1311
F9.0
aF0.9315771704820524
aa(lp1312
F38.0
aF0.8405098762860268
aa(lp1313
F9.0
aF0.6590149900560014
aa(lp1314
F9.0
aF0.48030876996999256
aa(lp1315
F42.0
aF0.051912179054736315
aa(lp1316
F42.0
aF0.9686454297378556
aa(lp1317
F40.0
aF0.5203339876286591
aa(lp1318
F40.0
aF0.5739067517912825
aa(lp1319
F42.0
aF0.7213160750700544
aa(lp1320
F41.0
aF0.33626171871983507
aa(lp1321
F9.0
aF0.3750250847342966
aa(lp1322
F38.0
aF0.1659247495322658
aa(lp1323
F38.0
aF0.2214293023536914
aa(lp1324
F42.0
aF0.5221487824438767
aa(lp1325
F9.0
aF0.37709018438536585
aa(lp1326
F9.0
aF0.3965498404038566
aa(lp1327
F38.0
aF0.5177304405521339
aa(lp1328
F42.0
aF0.2607871371111979
aa(lp1329
F9.0
aF0.8486748891418173
aa(lp1330
F9.0
aF0.5538531730166115
aa(lp1331
F39.0
aF0.3515221963256717
aa(lp1332
F44.0
aF0.8944156897863916
aa(lp1333
F42.0
aF0.8353198120339717
aa(lp1334
F42.0
aF0.754024551174522
aa(lp1335
F38.0
aF0.4227502213274498
aa(lp1336
F9.0
aF0.4719703387307148
aa(lp1337
F39.0
aF0.6504959865708368
aa(lp1338
F40.0
aF0.28406626181969347
aa(lp1339
F9.0
aF0.9127590523487338
aa(lp1340
F40.0
aF0.9416725676799311
aa(lp1341
F40.0
aF0.5806414792701262
aa(lp1342
F38.0
aF0.6525099911530212
aa(lp1343
F38.0
aF0.6440358974434793
aa(lp1344
F40.0
aF0.5470915046289297
aa(lp1345
F17.0
aF0.7683491498557703
aa(lp1346
F17.0
aF0.7836326003699315
aa(lp1347
F39.0
aF0.8591118025082538
aa(lp1348
F44.0
aF0.8303362176858878
aa(lp1349
F40.0
aF0.31256605345376964
aa(lp1350
F40.0
aF0.8875014650634863
aa(lp1351
F42.0
aF0.4312186761327437
aa(lp1352
F39.0
aF0.33053466476941123
aa(lp1353
F9.0
aF0.6953518541061902
aa(lp1354
F42.0
aF0.8274676402485266
aa(lp1355
F42.0
aF0.011846570586941016
aa(lp1356
F40.0
aF0.7957311441307825
aa(lp1357
F42.0
aF0.4511237255989193
aa(lp1358
F38.0
aF0.9244387703960107
aa(lp1359
F39.0
aF0.5549199360798015
aa(lp1360
F39.0
aF0.3517671757470552
aa(lp1361
F9.0
aF0.8065964156130089
aa(lp1362
F44.0
aF0.7451496661352341
aa(lp1363
F42.0
aF0.2959850970793356
aa(lp1364
F40.0
aF0.5664228386374657
aa(lp1365
F9.0
aF0.60255959353077
aa(lp1366
F38.0
aF0.6734456212448362
aa(lp1367
F42.0
aF0.6974208617440606
aa(lp1368
F9.0
aF0.6928480150289513
aa(lp1369
F40.0
aF0.25529104215044796
aa(lp1370
F40.0
aF0.5131224265991918
aa(lp1371
F44.0
aF0.7846642786005723
aa(lp1372
F39.0
aF0.2071178950269385
aa(lp1373
F9.0
aF0.6720251216818699
aa(lp1374
F38.0
aF0.9923051823646849
aa(lp1375
F40.0
aF0.9855538079538255
aa(lp1376
F38.0
aF0.1642712622115107
aa(lp1377
F42.0
aF0.8812442872388493
aa(lp1378
F44.0
aF0.6642368533924857
aa(lp1379
F40.0
aF0.8833871518011109
aa(lp1380
F9.0
aF0.8339347715803374
aa(lp1381
F40.0
aF0.8257699874544335
aa(lp1382
F40.0
aF0.3781169725671781
aa(lp1383
F42.0
aF0.03189599709538708
aa(lp1384
F9.0
aF0.8857595809195985
aa(lp1385
F38.0
aF0.4942203625030632
aa(lp1386
F9.0
aF0.7448687137054243
aa(lp1387
F9.0
aF0.36631788821080014
aa(lp1388
F42.0
aF0.6150057272652139
aa(lp1389
F9.0
aF0.3694879277013348
aa(lp1390
F40.0
aF0.5389770836946779
aa(lp1391
F40.0
aF0.9818811670267659
aa(lp1392
F40.0
aF0.6187963465689449
aa(lp1393
F42.0
aF0.7705066915281388
aa(lp1394
F44.0
aF0.7758777931437633
aa(lp1395
F42.0
aF0.10837299537046316
aa(lp1396
F39.0
aF0.2688059530488855
aa(lp1397
F42.0
aF0.8611702964319434
aa(lp1398
F40.0
aF0.34719278391162556
aa(lp1399
F17.0
aF0.6906320850267619
aa(lp1400
F38.0
aF0.8599729810101377
aa(lp1401
F40.0
aF0.5134010527326295
aa(lp1402
F40.0
aF0.8052934780612492
aa(lp1403
F9.0
aF0.5687029156892457
aa(lp1404
F40.0
aF0.88963519717753
aa(lp1405
F38.0
aF0.8127533050682304
aa(lp1406
F9.0
aF0.5976102920149425
aa(lp1407
F38.0
aF0.6474828061672835
aa(lp1408
F38.0
aF0.3944750515017818
aa(lp1409
F40.0
aF0.39499193821023504
aa(lp1410
F40.0
aF0.750944019106875
aa(lp1411
F9.0
aF0.8729864265853443
aa(lp1412
F9.0
aF0.7436654270548664
aa(lp1413
F40.0
aF0.8550066357091075
aa(lp1414
F9.0
aF0.6854941671541513
aa(lp1415
F42.0
aF0.43086949288671433
aa(lp1416
F40.0
aF0.8938612550972918
aa(lp1417
F9.0
aF0.8534336124650972
aa(lp1418
F9.0
aF0.625253243200972
aa(lp1419
F17.0
aF0.6823506866793296
aa(lp1420
F42.0
aF0.08455331659772347
aa(lp1421
F40.0
aF0.517823479610932
aa(lp1422
F38.0
aF0.3204486371739366
aa(lp1423
F9.0
aF0.37820992004054915
aa(lp1424
F17.0
aF0.7230615565639699
aa(lp1425
F39.0
aF0.20111051280658945
aa(lp1426
F42.0
aF0.09343033223315945
aa(lp1427
F9.0
aF0.6875870389939572
aa(lp1428
F63.0
aF0.8767123047618766
aa(lp1429
F39.0
aF0.186059897543403
aa(lp1430
F9.0
aF0.6377563323830416
aa(lp1431
F42.0
aF0.43078094410009304
aa(lp1432
F42.0
aF0.46802499266169095
aa(lp1433
F42.0
aF0.16320560520301203
aa(lp1434
F38.0
aF0.3216113050036394
aa(lp1435
F38.0
aF0.7334048747466729
aa(lp1436
F40.0
aF0.9473790876285395
aa(lp1437
F9.0
aF0.6764028798897885
aa(lp1438
F9.0
aF0.3879521930763144
aa(lp1439
F17.0
aF0.732625301682442
aa(lp1440
F9.0
aF0.949569280999987
aa(lp1441
F38.0
aF0.3326551076205435
aa(lp1442
F44.0
aF0.7653516755428685
aa(lp1443
F39.0
aF0.01361600989931385
aa(lp1444
F40.0
aF0.9489227358541735
aa(lp1445
F38.0
aF0.48317304832478664
aa(lp1446
F17.0
aF0.8183765904504381
aa(lp1447
F38.0
aF0.2735273449177235
aa(lp1448
F41.0
aF0.41148463168367594
aa(lp1449
F42.0
aF0.27762833597294273
aa(lp1450
F40.0
aF0.30763983599087796
aa(lp1451
F42.0
aF0.08500833609075037
aa(lp1452
F44.0
aF0.8373250203804643
aa(lp1453
F17.0
aF0.7556844379482182
aa(lp1454
F38.0
aF0.7844972961960273
aa(lp1455
F41.0
aF0.3710761368084336
aa(lp1456
F38.0
aF0.06629468873182615
aa(lp1457
F40.0
aF0.6890854767249298
aa(lp1458
F38.0
aF0.4039784300598399
aa(lp1459
F9.0
aF0.3612110971511513
aa(lp1460
F9.0
aF0.6597511719820849
aa(lp1461
F44.0
aF0.9734598645498536
aa(lp1462
F42.0
aF0.9311224601375372
aa(lp1463
F42.0
aF0.18699155449770377
aa(lp1464
F42.0
aF0.25777386095589305
aa(lp1465
F38.0
aF0.20291993530710878
aa(lp1466
F9.0
aF0.5707224725949679
aa(lp1467
F42.0
aF0.9216936226020886
aa(lp1468
F38.0
aF0.7274600449002511
aa(lp1469
F9.0
aF0.8167553190907635
aa(lp1470
F9.0
aF0.8692680117376781
aa(lp1471
F9.0
aF0.469887626690211
aa(lp1472
F9.0
aF0.6951420278732178
aa(lp1473
F39.0
aF0.17077060524874138
aa(lp1474
F39.0
aF0.3750216136137044
aa(lp1475
F9.0
aF0.800344863547101
aa(lp1476
F9.0
aF0.9611640065105942
aa(lp1477
F9.0
aF0.482198496864744
aa(lp1478
F9.0
aF0.9372641501721997
aa(lp1479
F42.0
aF0.7750627840075174
aa(lp1480
F9.0
aF0.4551170534133402
aa(lp1481
F9.0
aF0.5190436043006238
aa(lp1482
F40.0
aF0.605673085213439
aa(lp1483
F40.0
aF0.9300245844412134
aa(lp1484
F42.0
aF0.9225059965392206
aa(lp1485
F44.0
aF0.7589314021278555
aa(lp1486
F40.0
aF0.8846471517944273
aa(lp1487
F40.0
aF0.9389286141149004
aa(lp1488
F9.0
aF0.8015551135950348
aa(lp1489
F9.0
aF0.6183509689419923
aa(lp1490
F63.0
aF0.8957132244880139
aa(lp1491
F9.0
aF0.6279640047673968
aa(lp1492
F9.0
aF0.3710330097020568
aa(lp1493
F9.0
aF0.8468566633375123
aa(lp1494
F42.0
aF0.07140049228143935
aa(lp1495
F39.0
aF0.11067486749039189
aa(lp1496
F38.0
aF0.17146401517309756
aa(lp1497
F9.0
aF0.5599475247541721
aa(lp1498
F40.0
aF0.5939430927770604
aa(lp1499
F40.0
aF0.2953141117338044
aa(lp1500
F9.0
aF0.5376518509986383
aa(lp1501
F9.0
aF0.4043913227430801
aa(lp1502
F40.0
aF0.5586972093551296
aa(lp1503
F9.0
aF0.7380844189559925
aa(lp1504
F44.0
aF0.93250343918476
aa(lp1505
F40.0
aF0.9711803097229484
aa(lp1506
F38.0
aF0.9316899145489225
aa(lp1507
F42.0
aF0.8717980811609418
aa(lp1508
F38.0
aF0.5097846642924402
aa(lp1509
F40.0
aF0.9101079738658447
aa(lp1510
F40.0
aF0.929395749752586
aa(lp1511
F38.0
aF0.7730884911670434
aa(lp1512
F9.0
aF0.6855370359568222
aa(lp1513
F42.0
aF0.9198347981140584
aa(lp1514
F39.0
aF0.2863175606831879
aa(lp1515
F38.0
aF0.6973897985661073
aa(lp1516
F38.0
aF0.47711499576413413
aa(lp1517
F38.0
aF0.27963157610289147
aa(lp1518
F9.0
aF0.7415696706770629
aa(lp1519
F9.0
aF0.5529412381781279
aa(lp1520
F38.0
aF0.13470745982165336
aa(lp1521
F9.0
aF0.6496299943548585
aa(lp1522
F9.0
aF0.8216501460281321
aa(lp1523
F40.0
aF0.635318491766218
aa(lp1524
F17.0
aF0.6747524684943298
aa(lp1525
F44.0
aF0.7741301836847015
aa(lp1526
F9.0
aF0.680779364891354
aa(lp1527
F9.0
aF0.7238087347299376
aa(lp1528
F9.0
aF0.8698716444447311
aa(lp1529
F40.0
aF0.9382858786810666
aa(lp1530
F42.0
aF0.7799464005408614
aa(lp1531
F40.0
aF0.41013908268034904
aa(lp1532
F9.0
aF0.7155998177978051
aa(lp1533
F9.0
aF0.3851637666474605
aa(lp1534
F40.0
aF0.5456134283221966
aa(lp1535
F39.0
aF0.9072584551007744
aa(lp1536
F9.0
aF0.703355672594667
aa(lp1537
F17.0
aF0.7442655624469564
aa(lp1538
F9.0
aF0.7077487731005535
aa(lp1539
F9.0
aF0.7831962732849421
aa(lp1540
F9.0
aF0.8732958491028042
aa(lp1541
F44.0
aF0.9024461162173181
aa(lp1542
F39.0
aF0.572388790676482
aa(lp1543
F42.0
aF0.9685122015942264
aa(lp1544
F39.0
aF0.4377696831720555
aa(lp1545
F42.0
aF0.6153628925177878
aa(lp1546
F9.0
aF0.9265564755252973
aa(lp1547
F38.0
aF0.24417395532906666
aa(lp1548
F38.0
aF0.43452060253275976
aa(lp1549
F17.0
aF0.7336375690491252
aa(lp1550
F40.0
aF0.5727407147252107
aa(lp1551
F17.0
aF0.7611232344205936
aa(lp1552
F9.0
aF0.7424046487010727
aa(lp1553
F9.0
aF0.8129393104489967
aa(lp1554
F9.0
aF0.5417849746501171
aa(lp1555
F9.0
aF0.5775497101265593
aa(lp1556
F40.0
aF0.5164131425168929
aa(lp1557
F9.0
aF0.5967652757442239
aa(lp1558
F40.0
aF0.898908699353063
aa(lp1559
F17.0
aF0.8468297531668573
aa(lp1560
F39.0
aF0.4972964117762401
aa(lp1561
F42.0
aF0.42536420368738376
aa(lp1562
F9.0
aF0.44807292673565263
aa(lp1563
F40.0
aF0.3031942887645125
aa(lp1564
F38.0
aF0.2520176126222282
aa(lp1565
F40.0
aF0.8311131738225694
aa(lp1566
F40.0
aF0.57031607780742
aa(lp1567
F9.0
aF0.6820130895143319
aa(lp1568
F40.0
aF0.9347335612360074
aa(lp1569
F39.0
aF0.3120163088176736
aa(lp1570
F42.0
aF0.7464649324932623
aa(lp1571
F40.0
aF0.2875436425784639
aa(lp1572
F40.0
aF0.8531139559682577
aa(lp1573
F9.0
aF0.7407229484707407
aa(lp1574
F42.0
aF0.4052529915118897
aa(lp1575
F39.0
aF0.09472165247946188
aa(lp1576
F42.0
aF0.4511910040747818
aa(lp1577
F9.0
aF0.9501479582307356
aa(lp1578
F44.0
aF0.9000016989275134
aa(lp1579
F9.0
aF0.4079664584013422
aa(lp1580
F39.0
aF0.11856342639911994
aa(lp1581
F44.0
aF0.9910917218286154
aa(lp1582
F9.0
aF0.6399996737292398
aa(lp1583
F38.0
aF0.29072284689828054
aa(lp1584
F17.0
aF0.7161757354209151
aa(lp1585
F9.0
aF0.6338663332186595
aa(lp1586
F44.0
aF0.6777835003481149
aa(lp1587
F44.0
aF0.8751940442760093
aa(lp1588
F38.0
aF0.5998218436754834
aa(lp1589
F9.0
aF0.853340913152186
aa(lp1590
F42.0
aF0.7310514346120248
aa(lp1591
F9.0
aF0.7366583376692777
aa(lp1592
F9.0
aF0.6303590431132835
aa(lp1593
F39.0
aF0.3038032853918941
aa(lp1594
F40.0
aF0.8837042454156612
aa(lp1595
F17.0
aF0.7726345665219225
aa(lp1596
F40.0
aF0.5214278296319269
aa(lp1597
F9.0
aF0.6368339364804507
aa(lp1598
F9.0
aF0.7462200627767589
aa(lp1599
F40.0
aF0.681460409319653
aa(lp1600
F42.0
aF0.4067439615372448
aa(lp1601
F38.0
aF0.8804812036531655
aa(lp1602
F39.0
aF0.5683044158133945
aa(lp1603
F40.0
aF0.5837778588091387
aa(lp1604
F9.0
aF0.9097181479991862
aa(lp1605
F42.0
aF0.2685013891603011
aa(lp1606
F9.0
aF0.6698423503498225
aa(lp1607
F40.0
aF0.8340560811218312
aa(lp1608
F42.0
aF0.4504145419076776
aa(lp1609
F9.0
aF0.5028107066352079
aa(lp1610
F39.0
aF0.28317805635414495
aa(lp1611
F9.0
aF0.7996474718228257
aa(lp1612
F17.0
aF0.7549759887735664
aa(lp1613
F9.0
aF0.3999855955028509
aa(lp1614
F9.0
aF0.8449099923819416
aa(lp1615
F9.0
aF0.594895320496704
aa(lp1616
F9.0
aF0.972363059155537
aa(lp1617
F9.0
aF0.6360790281472054
aa(lp1618
F38.0
aF0.9019801035849487
aa(lp1619
F40.0
aF0.5223655990750821
aa(lp1620
F39.0
aF0.14483218006669127
aa(lp1621
F9.0
aF0.7164304750174156
aa(lp1622
F9.0
aF0.5094648468803258
aa(lp1623
F9.0
aF0.7921112659151175
aa(lp1624
F40.0
aF0.2543097116160006
aa(lp1625
F9.0
aF0.48417859058419416
aa(lp1626
F39.0
aF0.7750806858098318
aa(lp1627
F39.0
aF0.7855170747964796
aa(lp1628
F44.0
aF0.7716548670404975
aa(lp1629
F9.0
aF0.44319238517255594
aa(lp1630
F39.0
aF0.4061215685850641
aa(lp1631
F40.0
aF0.5948018511423213
aa(lp1632
F9.0
aF0.36564855261954726
aa(lp1633
F9.0
aF0.5942298799289847
aa(lp1634
F9.0
aF0.8597577038816101
aa(lp1635
F39.0
aF0.6972676893767711
aa(lp1636
F40.0
aF0.9457748858345044
aa(lp1637
F39.0
aF0.5150740146992482
aa(lp1638
F9.0
aF0.682878939072305
aa(lp1639
F9.0
aF0.4495760220948091
aa(lp1640
F9.0
aF0.8793764031708106
aa(lp1641
F42.0
aF0.07107931072294958
aa(lp1642
F42.0
aF0.8769194636546878
aa(lp1643
F39.0
aF0.2759430131082758
aa(lp1644
F17.0
aF0.7479469624323738
aa(lp1645
F9.0
aF0.42395268007871256
aa(lp1646
F9.0
aF0.7120027307676761
aa(lp1647
F40.0
aF0.8991834481039038
aa(lp1648
F40.0
aF0.8949177850940654
aa(lp1649
F40.0
aF0.5485620042915325
aa(lp1650
F40.0
aF0.5787535127519147
aa(lp1651
F9.0
aF0.5861472803219885
aa(lp1652
F40.0
aF0.5273336272818869
aa(lp1653
F9.0
aF0.43495183514585606
aa(lp1654
F40.0
aF0.5200454566690432
aa(lp1655
F9.0
aF0.5432323919416017
aa(lp1656
F40.0
aF0.47231142998461334
aa(lp1657
F42.0
aF0.32813402860590934
aa(lp1658
F9.0
aF0.4565972474896217
aa(lp1659
F40.0
aF0.7789833772286886
aa(lp1660
F9.0
aF0.9499301352204912
aa(lp1661
F9.0
aF0.8293047273582884
aa(lp1662
F40.0
aF0.8722003102263768
aa(lp1663
F9.0
aF0.804557771658788
aa(lp1664
F39.0
aF0.4257052741239339
aa(lp1665
F40.0
aF0.7536754094168049
aa(lp1666
F39.0
aF0.09266277148143752
aa(lp1667
F40.0
aF0.5461450936609875
aa(lp1668
F40.0
aF0.8310313739987003
aa(lp1669
F42.0
aF0.8989938534107792
aa(lp1670
F40.0
aF0.5905091504353295
aa(lp1671
F40.0
aF0.29643529081781667
aa(lp1672
F9.0
aF0.53461919110916
aa(lp1673
F9.0
aF0.5366330487443006
aa(lp1674
F40.0
aF0.926909218222629
aa(lp1675
F39.0
aF0.925847663438803
aa(lp1676
F42.0
aF0.26960488330468185
aa(lp1677
F44.0
aF0.7857470019626341
aa(lp1678
F17.0
aF0.822286802631281
aa(lp1679
F39.0
aF0.43728404356509976
aa(lp1680
F44.0
aF0.6184464912742386
aa(lp1681
F9.0
aF0.6258306786822553
aa(lp1682
F9.0
aF0.7017273277421519
aa(lp1683
F9.0
aF0.6109191438048889
aa(lp1684
F9.0
aF0.7676650521767544
aa(lp1685
F17.0
aF0.7539079627369092
aa(lp1686
F42.0
aF0.24802591693795326
aa(lp1687
F9.0
aF0.3712657985679785
aa(lp1688
F9.0
aF0.9622464790700958
aa(lp1689
F42.0
aF0.8041474043476633
aa(lp1690
F40.0
aF0.5903083887162941
aa(lp1691
F9.0
aF0.4920362089261497
aa(lp1692
F17.0
aF0.7797882008154945
aa(lp1693
F9.0
aF0.38774571139970754
aa(lp1694
F42.0
aF0.07102749859932461
aa(lp1695
F9.0
aF0.39836356412784885
aa(lp1696
F9.0
aF0.6407720638008517
aa(lp1697
F38.0
aF0.8908629117728822
aa(lp1698
F39.0
aF0.5783458078446354
aa(lp1699
F9.0
aF0.6065060457599144
aa(lp1700
F40.0
aF0.7416041013348793
aa(lp1701
F40.0
aF0.9882930736099527
aa(lp1702
F40.0
aF0.7405549592488737
aa(lp1703
F9.0
aF0.4382496517338974
aa(lp1704
F40.0
aF0.5992628435924573
aa(lp1705
F9.0
aF0.4827056600603692
aa(lp1706
F9.0
aF0.8503295600426477
aa(lp1707
F9.0
aF0.4758697779186811
aa(lp1708
F42.0
aF0.46145488368649695
aa(lp1709
F42.0
aF0.3978933366692056
aa(lp1710
F9.0
aF0.6254429493271181
aa(lp1711
F40.0
aF0.33076652791942845
aa(lp1712
F9.0
aF0.3632297429735907
aa(lp1713
F9.0
aF0.40910661733864745
aa(lp1714
F9.0
aF0.8297824252040088
aa(lp1715
F9.0
aF0.8846338073830379
aa(lp1716
F9.0
aF0.6163910574486835
aa(lp1717
F39.0
aF0.6167584053895535
aa(lp1718
F42.0
aF0.13294044374977193
aa(lp1719
F9.0
aF0.7021136267073795
aa(lp1720
F9.0
aF0.7183233285023748
aa(lp1721
F9.0
aF0.6516644645683116
aa(lp1722
F9.0
aF0.717073059939654
aa(lp1723
F42.0
aF0.17142943918208975
aa(lp1724
F9.0
aF0.6607644574145303
aa(lp1725
F9.0
aF0.6988313155845437
aa(lp1726
F39.0
aF0.17463336457265435
aa(lp1727
F9.0
aF0.5567862296921336
aa(lp1728
F9.0
aF0.6409029237427473
aa(lp1729
F9.0
aF0.4997877227684848
aa(lp1730
F42.0
aF0.27834076406449465
aa(lp1731
F9.0
aF0.43543735352452356
aa(lp1732
F40.0
aF0.31765582144601895
aa(lp1733
F9.0
aF0.8876053163683705
aa(lp1734
F9.0
aF0.9154349074567937
aa(lp1735
F17.0
aF0.6974943445956364
aa(lp1736
F9.0
aF0.558097348348173
aa(lp1737
F42.0
aF0.7146753214838764
aa(lp1738
F40.0
aF0.89698992314786
aa(lp1739
F9.0
aF0.4048610482506745
aa(lp1740
F39.0
aF0.29766564047106997
aa(lp1741
F9.0
aF0.8945681832458188
aa(lp1742
F9.0
aF0.774809845795458
aa(lp1743
F40.0
aF0.35093489322284505
aa(lp1744
F9.0
aF0.9347011501211459
aa(lp1745
F42.0
aF0.5443549176359059
aa(lp1746
F40.0
aF0.5991656755569871
aa(lp1747
F9.0
aF0.5743510663813869
aa(lp1748
F9.0
aF0.5767535248453729
aa(lp1749
F9.0
aF0.9632701672115679
aa(lp1750
F42.0
aF0.9130804757748723
aa(lp1751
F40.0
aF0.3363016256435036
aa(lp1752
F9.0
aF0.7399429846347184
aa(lp1753
F9.0
aF0.6508822066934861
aa(lp1754
F40.0
aF0.36318836755446116
aa(lp1755
F9.0
aF0.6995450178030169
aa(lp1756
F40.0
aF0.39383208572761674
aa(lp1757
F39.0
aF0.3447135077117367
aa(lp1758
F9.0
aF0.42495928172636166
aa(lp1759
F9.0
aF0.7856576009851692
aa(lp1760
F42.0
aF0.14977395232179463
aa(lp1761
F40.0
aF0.6673975240465397
aa(lp1762
F9.0
aF0.8257622932821168
aa(lp1763
F42.0
aF0.08432140686364034
aa(lp1764
F40.0
aF0.5672336805373783
aa(lp1765
F9.0
aF0.4130326451002831
aa(lp1766
F9.0
aF0.6847876754862106
aa(lp1767
F42.0
aF0.4069994322068846
aa(lp1768
F39.0
aF0.6373147581659807
aa(lp1769
F40.0
aF0.5804492389329986
aa(lp1770
F39.0
aF0.10205194172024637
aa(lp1771
F42.0
aF0.2287679362535557
aa(lp1772
F42.0
aF0.16411032292582253
aa(lp1773
F40.0
aF0.9914872120810813
aa(lp1774
F9.0
aF0.42051514983770033
aa(lp1775
F9.0
aF0.6563772608665291
aa(lp1776
F9.0
aF0.7637795932394422
aa(lp1777
F9.0
aF0.6942876175378757
aa(lp1778
F40.0
aF0.5974458037242324
aa(lp1779
F9.0
aF0.8854915262969939
aa(lp1780
F42.0
aF0.617838213373505
aa(lp1781
F40.0
aF0.613842043517653
aa(lp1782
F39.0
aF0.6594631653660096
aa(lp1783
F40.0
aF0.5157302878320925
aa(lp1784
F9.0
aF0.6625114116772899
aa(lp1785
F9.0
aF0.6569555640635921
aa(lp1786
F40.0
aF0.60245894051907
aa(lp1787
F42.0
aF0.47007513938009954
aa(lp1788
F9.0
aF0.6845331967144946
aa(lp1789
F9.0
aF0.4031267477906923
aa(lp1790
F40.0
aF0.9510126662990867
aa(lp1791
F9.0
aF0.7432732849774076
aa(lp1792
F44.0
aF0.6694844922747402
aa(lp1793
F9.0
aF0.36082929201266506
aa(lp1794
F9.0
aF0.5282563538671827
aa(lp1795
F9.0
aF0.41575129008821043
aa(lp1796
F40.0
aF0.6458698101308328
aa(lp1797
F40.0
aF0.6320374256874997
aa(lp1798
F40.0
aF0.47883619580838727
aa(lp1799
F9.0
aF0.6619376727933491
aa(lp1800
F9.0
aF0.5377220541535442
aa(lp1801
F39.0
aF0.8048333636915374
aa(lp1802
F42.0
aF0.7654485669109001
aa(lp1803
F39.0
aF0.8211799425707094
aa(lp1804
F9.0
aF0.368961369433179
aa(lp1805
F39.0
aF0.90895657048691
aa(lp1806
F42.0
aF0.9161663693152429
aa(lp1807
F9.0
aF0.8726526703332844
aa(lp1808
F9.0
aF0.4574384145570526
aa(lp1809
F44.0
aF0.6964938610308999
aa(lp1810
F40.0
aF0.9251245238548756
aa(lp1811
F9.0
aF0.6701768715168799
aa(lp1812
F42.0
aF0.06129760104156949
aa(lp1813
F40.0
aF0.8972557315258054
aa(lp1814
F9.0
aF0.474916922486023
aa(lp1815
F9.0
aF0.4702109476981593
aa(lp1816
F39.0
aF0.7527490711262096
aa(lp1817
F9.0
aF0.569715477903307
aa(lp1818
F9.0
aF0.7152590609726198
aa(lp1819
F9.0
aF0.40796470514484423
aa(lp1820
F9.0
aF0.41805543116139654
aa(lp1821
F40.0
aF0.6725929734726048
aa(lp1822
F39.0
aF0.6906827951274167
aa(lp1823
F40.0
aF0.4256747323190561
aa(lp1824
F42.0
aF0.4780099563721195
aa(lp1825
F9.0
aF0.9827872315589847
aa(lp1826
F9.0
aF0.6851788832203222
aa(lp1827
F39.0
aF0.9805005698655351
aa(lp1828
F9.0
aF0.5728974973294199
aa(lp1829
F42.0
aF0.4672936731139935
aa(lp1830
F40.0
aF0.4538204361168147
aa(lp1831
F40.0
aF0.5886680498624868
aa(lp1832
F40.0
aF0.8787061850916353
aa(lp1833
F42.0
aF0.5104187278429985
aa(lp1834
F9.0
aF0.6633945706448647
aa(lp1835
F9.0
aF0.609613323115543
aa(lp1836
F9.0
aF0.8663464957047197
aa(lp1837
F40.0
aF0.5055316323352652
aa(lp1838
F9.0
aF0.6823601330134161
aa(lp1839
F40.0
aF0.9746733915689278
aa(lp1840
F40.0
aF0.38504351988307417
aa(lp1841
F9.0
aF0.9340142752498225
aa(lp1842
F39.0
aF0.7517846230397687
aa(lp1843
F39.0
aF0.8073218945318416
aa(lp1844
F40.0
aF0.25328441896229126
aa(lp1845
F40.0
aF0.5345266547632989
aa(lp1846
F44.0
aF0.6416868686909605
aa(lp1847
F17.0
aF0.7717764134625797
aa(lp1848
F44.0
aF0.7835781229140979
aa(lp1849
F9.0
aF0.3597365411908399
aa(lp1850
F9.0
aF0.38162984312548354
aa(lp1851
F9.0
aF0.5235641773100402
aa(lp1852
F9.0
aF0.4637111887675407
aa(lp1853
F9.0
aF0.5533863260633332
aa(lp1854
F40.0
aF0.5448268948607391
aa(lp1855
F9.0
aF0.4323554968275671
aa(lp1856
F9.0
aF0.5934852181363547
aa(lp1857
F40.0
aF0.3176383813052511
aa(lp1858
F9.0
aF0.3765790475775808
aa(lp1859
F9.0
aF0.6647027855445067
aa(lp1860
F39.0
aF0.0008439347666971709
aa(lp1861
F9.0
aF0.637368830823946
aa(lp1862
F9.0
aF0.44518212821833597
aa(lp1863
F9.0
aF0.3660327244900543
aa(lp1864
F40.0
aF0.6554904736720878
aa(lp1865
F40.0
aF0.304790515077059
aa(lp1866
F44.0
aF0.6641987276480188
aa(lp1867
F42.0
aF0.3302145341999083
aa(lp1868
F42.0
aF0.14439558607284664
aa(lp1869
F39.0
aF0.13784980287996654
aa(lp1870
F42.0
aF0.9013741436036281
aa(lp1871
F40.0
aF0.8744984904363856
aa(lp1872
F42.0
aF0.9121323125723195
aa(lp1873
F42.0
aF0.942486793203694
aa(lp1874
F9.0
aF0.9899022671192014
aa(lp1875
F40.0
aF0.8505665763543351
aa(lp1876
F40.0
aF0.5866481330693093
aa(lp1877
F9.0
aF0.5147927851217141
aa(lp1878
F39.0
aF0.013019294537258048
aa(lp1879
F42.0
aF0.23479341216037963
aa(lp1880
F17.0
aF0.6816183099541964
aa(lp1881
F9.0
aF0.398494938924865
aa(lp1882
F17.0
aF0.7524615795559763
aa(lp1883
F42.0
aF0.6254696971410213
aa(lp1884
F44.0
aF0.67236487594613
aa(lp1885
F40.0
aF0.5447227725095645
aa(lp1886
F40.0
aF0.4593129961059945
aa(lp1887
F42.0
aF0.7969484604554727
aa(lp1888
F42.0
aF0.8456024924149845
aa(lp1889
F40.0
aF0.916964315875826
aa(lp1890
F9.0
aF0.68592092972801
aa(lp1891
F39.0
aF0.6960805658648744
aa(lp1892
F39.0
aF0.95154749904481
aa(lp1893
F9.0
aF0.4309353801047925
aa(lp1894
F9.0
aF0.6368495597529316
aa(lp1895
F39.0
aF0.27302395838219956
aa(lp1896
F9.0
aF0.39534031057931396
aa(lp1897
F40.0
aF0.6074229772367511
aa(lp1898
F40.0
aF0.9378836968911776
aa(lp1899
F9.0
aF0.480719005249966
aa(lp1900
F39.0
aF0.9009899509026543
aa(lp1901
F38.0
aF0.9263439253909683
aa(lp1902
F40.0
aF0.6796220028583616
aa(lp1903
F40.0
aF0.9521401136965983
aa(lp1904
F9.0
aF0.6221478848479259
aa(lp1905
F40.0
aF0.6033013536599405
aa(lp1906
F9.0
aF0.6980188516128364
aa(lp1907
F9.0
aF0.7867013949079417
aa(lp1908
F40.0
aF0.5646990820713943
aa(lp1909
F9.0
aF0.539879113637903
aa(lp1910
F9.0
aF0.8592218970361505
aa(lp1911
F40.0
aF0.5857311716132523
aa(lp1912
F39.0
aF0.3150782845189799
aa(lp1913
F39.0
aF0.02660414384092113
aa(lp1914
F9.0
aF0.7442209843997518
aa(lp1915
F42.0
aF0.4940404196909696
aa(lp1916
F9.0
aF0.8216188933292466
aa(lp1917
F9.0
aF0.9434066118373037
aa(lp1918
F17.0
aF0.7326329730748361
aa(lp1919
F9.0
aF0.6232730552621835
aa(lp1920
F40.0
aF0.6024271818591171
aa(lp1921
F9.0
aF0.37508145565427264
aa(lp1922
F9.0
aF0.5092809409528847
aa(lp1923
F39.0
aF0.7589609270897285
aa(lp1924
F9.0
aF0.9528638313365517
aa(lp1925
F40.0
aF0.5196720692521197
aa(lp1926
F9.0
aF0.5889736227739906
aa(lp1927
F17.0
aF0.7567903614126081
aa(lp1928
F40.0
aF0.9598555886664306
aa(lp1929
F42.0
aF0.12143187570253282
aa(lp1930
F39.0
aF0.6695995952972782
aa(lp1931
F17.0
aF0.7686358216555623
aa(lp1932
F39.0
aF0.6679751511004436
aa(lp1933
F40.0
aF0.5729740073678219
aa(lp1934
F9.0
aF0.6932208293487194
aa(lp1935
F9.0
aF0.7216821162760448
aa(lp1936
F40.0
aF0.9983569483181775
aa(lp1937
F9.0
aF0.6688051905580097
aa(lp1938
F42.0
aF0.09623032720800974
aa(lp1939
F40.0
aF0.9391854927809282
aa(lp1940
F42.0
aF0.105561937939868
aa(lp1941
F9.0
aF0.46075602069292776
aa(lp1942
F9.0
aF0.4982443063939078
aa(lp1943
F39.0
aF0.547766163246429
aa(lp1944
F39.0
aF0.8242709497975107
aa(lp1945
F42.0
aF0.8341650847322746
aa(lp1946
F42.0
aF0.864589226491353
aa(lp1947
F9.0
aF0.36417761189994796
aa(lp1948
F42.0
aF0.7808883664362466
aa(lp1949
F39.0
aF0.5616135703294725
aa(lp1950
F42.0
aF0.7367103384039988
aa(lp1951
F9.0
aF0.7286399062614459
aa(lp1952
F40.0
aF0.8941773281789023
aa(lp1953
F39.0
aF0.3456861181689708
aa(lp1954
F9.0
aF0.3689939508498309
aa(lp1955
F42.0
aF0.9083506210327734
aa(lp1956
F9.0
aF0.5540828944229519
aa(lp1957
F39.0
aF0.19731466918936846
aa(lp1958
F9.0
aF0.8632274985617883
aa(lp1959
F9.0
aF0.44358882499611746
aa(lp1960
F9.0
aF0.691447701681422
aa(lp1961
F39.0
aF0.726321543388153
aa(lp1962
F9.0
aF0.537483947289153
aa(lp1963
F40.0
aF0.5761423878484355
aa(lp1964
F42.0
aF0.9877690089337096
aa(lp1965
F40.0
aF0.5955806600690239
aa(lp1966
F9.0
aF0.4512912099006763
aa(lp1967
F9.0
aF0.6057870582798249
aa(lp1968
F39.0
aF0.17504310261115094
aa(lp1969
F9.0
aF0.4664795836972343
aa(lp1970
F9.0
aF0.7568420740689333
aa(lp1971
F9.0
aF0.7888394338137387
aa(lp1972
F39.0
aF0.8301105682645414
aa(lp1973
F42.0
aF0.08952200320578767
aa(lp1974
F40.0
aF0.509300721122049
aa(lp1975
F9.0
aF0.5071784332358451
aa(lp1976
F40.0
aF0.2949105946931026
aa(lp1977
F39.0
aF0.3093588849864289
aa(lp1978
F9.0
aF0.7645468287320321
aa(lp1979
F41.0
aF0.35449834215003284
aa(lp1980
F42.0
aF0.45182791682260476
aa(lp1981
F39.0
aF0.31728901440456037
aa(lp1982
F39.0
aF0.3249486147462939
aa(lp1983
F9.0
aF0.5296291121598407
aa(lp1984
F9.0
aF0.5493411194580962
aa(lp1985
F9.0
aF0.44451996330322
aa(lp1986
F9.0
aF0.782684931518728
aa(lp1987
F9.0
aF0.3830884204999132
aa(lp1988
F9.0
aF0.6584507041529316
aa(lp1989
F40.0
aF0.565868939953604
aa(lp1990
F42.0
aF0.8642319162738351
aa(lp1991
F9.0
aF0.45697801602622995
aa(lp1992
F39.0
aF0.663427437969974
aa(lp1993
F9.0
aF0.5810639806723994
aa(lp1994
F9.0
aF0.37335087312229087
aa(lp1995
F17.0
aF0.7681016429536602
aa(lp1996
F9.0
aF0.49384865989146176
aa(lp1997
F9.0
aF0.7002350395107033
aa(lp1998
F9.0
aF0.7943433254870611
aa(lp1999
F9.0
aF0.6907870417725339
aa(lp2000
F9.0
aF0.47066755323698983
aa(lp2001
F9.0
aF0.5839139907157328
aa(lp2002
F40.0
aF0.9504945754990899
aa(lp2003
F40.0
aF0.5408974615290686
aa(lp2004
F42.0
aF0.14199182920515768
aa(lp2005
F40.0
aF0.6012744145447382
aa(lp2006
F39.0
aF0.7613243764326529
aa(lp2007
F9.0
aF0.39319122560208686
aa(lp2008
F9.0
aF0.5396155329741994
aa(lp2009
F9.0
aF0.624369363997396
aa(lp2010
F42.0
aF0.8660533411467117
aa(lp2011
F9.0
aF0.35835309635205936
aa(lp2012
F17.0
aF0.7296617337928516
aa(lp2013
F40.0
aF0.872575171292088
aa(lp2014
F40.0
aF0.5185525971900573
aa(lp2015
F39.0
aF0.8314177343697022
aa(lp2016
F9.0
aF0.6434418825597095
aa(lp2017
F9.0
aF0.8547978014323331
aa(lp2018
F9.0
aF0.5599402631626474
aa(lp2019
F39.0
aF0.8914996143243971
aa(lp2020
F9.0
aF0.5311475196022105
aa(lp2021
F40.0
aF0.5706604482365544
aa(lp2022
F9.0
aF0.3782463991226343
aa(lp2023
F39.0
aF0.9108309455538095
aa(lp2024
F9.0
aF0.37302291386586917
aa(lp2025
F9.0
aF0.46522171790196554
aa(lp2026
F9.0
aF0.7773271523363524
aa(lp2027
F38.0
aF0.9804832511601613
aa(lp2028
F9.0
aF0.4902931040747514
aa(lp2029
F9.0
aF0.7595656175860195
aa(lp2030
F39.0
aF0.30616484933464844
aa(lp2031
F40.0
aF0.525507559562344
aa(lp2032
F9.0
aF0.610301452031567
aa(lp2033
F42.0
aF0.5340149499684187
aa(lp2034
F9.0
aF0.8493216688265237
aa(lp2035
F42.0
aF0.1548353637790015
aa(lp2036
F40.0
aF0.5926672697524863
aa(lp2037
F40.0
aF0.5856638012995584
aa(lp2038
F42.0
aF0.7611777853194355
aa(lp2039
F17.0
aF0.7341098785825622
aa(lp2040
F9.0
aF0.45421171962847856
aa(lp2041
F40.0
aF0.5972316309347127
aa(lp2042
F42.0
aF0.27818285815215354
aa(lp2043
F40.0
aF0.5926191084254365
aa(lp2044
F40.0
aF0.5429191143576286
aa(lp2045
F9.0
aF0.7741932067465368
aa(lp2046
F39.0
aF0.8076284311348079
aa(lp2047
F9.0
aF0.36420293908960644
aa(lp2048
F38.0
aF0.8805953655355833
aa(lp2049
F40.0
aF0.8685532374368234
aa(lp2050
F40.0
aF0.28635776441258814
aa(lp2051
F40.0
aF0.6967802961255534
aa(lp2052
F40.0
aF0.9309987252909058
aa(lp2053
F40.0
aF0.6333150325514696
aa(lp2054
F39.0
aF0.6703327147745077
aa(lp2055
F9.0
aF0.6535922950106263
aa(lp2056
F9.0
aF0.5466257600850656
aa(lp2057
F42.0
aF0.18750903266142954
aa(lp2058
F9.0
aF0.8150449904062479
aa(lp2059
F42.0
aF0.7841002099419623
aa(lp2060
F9.0
aF0.3664973325691543
aa(lp2061
F9.0
aF0.49322755624693404
aa(lp2062
F40.0
aF0.9501260212529616
aa(lp2063
F38.0
aF0.9406354394603674
aa(lp2064
F9.0
aF0.7276418011514224
aa(lp2065
F42.0
aF0.5238681723230785
aa(lp2066
F39.0
aF0.34423031113550295
aa(lp2067
F9.0
aF0.6514604962270739
aa(lp2068
F9.0
aF0.4335191243814558
aa(lp2069
F40.0
aF0.7003232731920342
aa(lp2070
F40.0
aF0.6171886240725669
aa(lp2071
F9.0
aF0.4739515780571905
aa(lp2072
F9.0
aF0.42738996711365373
aa(lp2073
F9.0
aF0.4917845076797424
aa(lp2074
F38.0
aF0.9674020895346648
aa(lp2075
F39.0
aF0.3006373936338375
aa(lp2076
F39.0
aF0.1802513878114207
aa(lp2077
F40.0
aF0.602095989175987
aa(lp2078
F9.0
aF0.43220315756889344
aa(lp2079
F42.0
aF0.14395044921302563
aa(lp2080
F40.0
aF0.9805111349962412
aa(lp2081
F9.0
aF0.6803125576611457
aa(lp2082
F42.0
aF0.445058338319182
aa(lp2083
F44.0
aF0.6155553475533075
aa(lp2084
F9.0
aF0.7009450340472059
aa(lp2085
F9.0
aF0.7543024041018336
aa(lp2086
F42.0
aF0.4086863061589425
aa(lp2087
F44.0
aF0.6998233314207456
aa(lp2088
F42.0
aF0.3571237717360595
aa(lp2089
F40.0
aF0.325092702460064
aa(lp2090
F17.0
aF0.7659782478286399
aa(lp2091
F40.0
aF0.8537542738917686
aa(lp2092
F9.0
aF0.8627490519172879
aa(lp2093
F42.0
aF0.06982847032368707
aa(lp2094
F40.0
aF0.6179711041236112
aa(lp2095
F9.0
aF0.42326807669231586
aa(lp2096
F40.0
aF0.8608632205871133
aa(lp2097
F9.0
aF0.6883410658407588
aa(lp2098
F42.0
aF0.6157220718672648
aa(lp2099
F39.0
aF0.14497848844827482
aa(lp2100
F9.0
aF0.5061329735797384
aa(lp2101
F9.0
aF0.46491535498144126
aa(lp2102
F40.0
aF0.9164540351904793
aa(lp2103
F40.0
aF0.6371658535452435
aa(lp2104
F9.0
aF0.6430386347820793
aa(lp2105
F9.0
aF0.6341167776271405
aa(lp2106
F9.0
aF0.7954015238524303
aa(lp2107
F9.0
aF0.7755395038063374
aa(lp2108
F9.0
aF0.48769894901203775
aa(lp2109
F40.0
aF0.5447902340013837
aa(lp2110
F42.0
aF0.61006084952967
aa(lp2111
F9.0
aF0.36666203638991063
aa(lp2112
F40.0
aF0.6599913445519509
aa(lp2113
F42.0
aF0.1615113320079514
aa(lp2114
F42.0
aF0.20321097414757866
aa(lp2115
F9.0
aF0.5359490825916056
aa(lp2116
F9.0
aF0.7922482555932604
aa(lp2117
F9.0
aF0.7971187112608803
aa(lp2118
F9.0
aF0.5312361357618689
aa(lp2119
F39.0
aF0.22045087985770775
aa(lp2120
F39.0
aF0.20549530578434447
aa(lp2121
F9.0
aF0.498580654462773
aa(lp2122
F17.0
aF0.7497373490557577
aa(lp2123
F42.0
aF0.007161279497945441
aa(lp2124
F9.0
aF0.3732122174207721
aa(lp2125
F9.0
aF0.35728396155093256
aa(lp2126
F9.0
aF0.5390616258454303
aa(lp2127
F17.0
aF0.7547512122797465
aa(lp2128
F42.0
aF0.8609340629899933
aa(lp2129
F9.0
aF0.3844387755676332
aa(lp2130
F44.0
aF0.6477825717110295
aa(lp2131
F9.0
aF0.6060034335165878
aa(lp2132
F9.0
aF0.8890446706081092
aa(lp2133
F9.0
aF0.8113080682083862
aa(lp2134
F9.0
aF0.47044182474317653
aa(lp2135
F42.0
aF0.07046039797505083
aa(lp2136
F9.0
aF0.49314170556325326
aa(lp2137
F40.0
aF0.5565559886595437
aa(lp2138
F40.0
aF0.5634705599502999
aa(lp2139
F17.0
aF0.7834830201348785
aa(lp2140
F39.0
aF0.2411801596090551
aa(lp2141
F9.0
aF0.678501160435379
aa(lp2142
F17.0
aF0.7827858816164075
aa(lp2143
F40.0
aF0.992931342718563
aa(lp2144
F9.0
aF0.7955702757755594
aa(lp2145
F40.0
aF0.5647712863347684
aa(lp2146
F9.0
aF0.567328598348069
aa(lp2147
F42.0
aF0.15711825584605832
aa(lp2148
F9.0
aF0.4991488391599154
aa(lp2149
F42.0
aF0.14271141910098617
aa(lp2150
F42.0
aF0.9245193123339163
aa(lp2151
F9.0
aF0.578519240231996
aa(lp2152
F40.0
aF0.5226869458351473
aa(lp2153
F42.0
aF0.7651046810278783
aa(lp2154
F40.0
aF0.5908305450480899
aa(lp2155
F40.0
aF0.6099126303882909
aa(lp2156
F40.0
aF0.5476708199573335
aa(lp2157
F42.0
aF0.7856363969678076
aa(lp2158
F9.0
aF0.6165567403926662
aa(lp2159
F9.0
aF0.37095286292962143
aa(lp2160
F9.0
aF0.3874863003090021
aa(lp2161
F40.0
aF0.5430627259398635
aa(lp2162
F9.0
aF0.8040771919737167
aa(lp2163
F42.0
aF0.05525962933533547
aa(lp2164
F42.0
aF0.41746324460922213
aa(lp2165
F39.0
aF0.2288778603422825
aa(lp2166
F39.0
aF0.10065288817440299
aa(lp2167
F39.0
aF0.20728530842725612
aa(lp2168
F9.0
aF0.423089378616947
aa(lp2169
F9.0
aF0.5338562884829111
aa(lp2170
F40.0
aF0.6628227780994662
aa(lp2171
F42.0
aF0.543985881340383
aa(lp2172
F9.0
aF0.5084821141380033
aa(lp2173
F40.0
aF0.8728146071399344
aa(lp2174
F40.0
aF0.624717797258701
aa(lp2175
F40.0
aF0.6207774358904968
aa(lp2176
F40.0
aF0.6605441624367113
aa(lp2177
F40.0
aF0.9424909052687036
aa(lp2178
F40.0
aF0.9354733210985474
aa(lp2179
F40.0
aF0.6125960796006619
aa(lp2180
F9.0
aF0.444096969288513
aa(lp2181
F40.0
aF0.5652385552855427
aa(lp2182
F9.0
aF0.7492358963206895
aa(lp2183
F44.0
aF0.7075373154081187
aa(lp2184
F39.0
aF0.2057691295602535
aa(lp2185
F9.0
aF0.43642272862022335
aa(lp2186
F9.0
aF0.44291665546649156
aa(lp2187
F9.0
aF0.8855093534369095
aa(lp2188
F40.0
aF0.9761545705606232
aa(lp2189
F40.0
aF0.5167155798199452
aa(lp2190
F40.0
aF0.6334140559376363
aa(lp2191
F9.0
aF0.8436840409710157
aa(lp2192
F9.0
aF0.8502004017109538
aa(lp2193
F40.0
aF0.6093618802948758
aa(lp2194
F44.0
aF0.6191142083379692
aa(lp2195
F42.0
aF0.479869338383265
aa(lp2196
F9.0
aF0.4239731354608579
aa(lp2197
F40.0
aF0.9267875638710392
aa(lp2198
F9.0
aF0.4557767658324364
aa(lp2199
F9.0
aF0.3684989855244157
aa(lp2200
F40.0
aF0.5099699415860596
aa(lp2201
F40.0
aF0.628751254412701
aa(lp2202
F41.0
aF0.25330707654628815
aa(lp2203
F9.0
aF0.38235627164448893
aa(lp2204
F38.0
aF0.9699408919418233
aa(lp2205
F42.0
aF0.9711059684133369
aa(lp2206
F44.0
aF0.6180128734189323
aa(lp2207
F9.0
aF0.3942753662656967
aa(lp2208
F9.0
aF0.41724734935046787
aa(lp2209
F9.0
aF0.38994978933514796
aa(lp2210
F9.0
aF0.5964604896782413
aa(lp2211
F40.0
aF0.6523345625910352
aa(lp2212
F9.0
aF0.3845411335197277
aa(lp2213
F9.0
aF0.4933668427634106
aa(lp2214
F9.0
aF0.6740490318009723
aa(lp2215
F9.0
aF0.5318945272312656
aa(lp2216
F9.0
aF0.563830490060019
aa(lp2217
F40.0
aF0.5539332155924659
aa(lp2218
F9.0
aF0.44124184830478647
aa(lp2219
F9.0
aF0.5568539330553461
aa(lp2220
F42.0
aF0.9921444214858268
aa(lp2221
F42.0
aF0.9798777477645485
aa(lp2222
F9.0
aF0.48845080974093136
aa(lp2223
F40.0
aF0.6748972210926852
aa(lp2224
F9.0
aF0.4139451518311713
aa(lp2225
F39.0
aF0.2984150094945615
aa(lp2226
F41.0
aF0.507726437470561
aa(lp2227
F39.0
aF0.20585638535715012
aa(lp2228
F9.0
aF0.5800561255664377
aa(lp2229
F9.0
aF0.851608797694333
aa(lp2230
F9.0
aF0.5464558382355649
aa(lp2231
F44.0
aF0.640869058475648
aa(lp2232
F9.0
aF0.8721582282994129
aa(lp2233
F42.0
aF0.9172928787105032
aa(lp2234
F9.0
aF0.5237041890058337
aa(lp2235
F40.0
aF0.668491225899342
aa(lp2236
F40.0
aF0.5996743953098426
aa(lp2237
F9.0
aF0.7491058449576413
aa(lp2238
F9.0
aF0.7271903547124774
aa(lp2239
F40.0
aF0.6509470154521447
aa(lp2240
F42.0
aF0.8331875416700704
aa(lp2241
F42.0
aF0.2713149071976952
aa(lp2242
F9.0
aF0.4045440240680763
aa(lp2243
F40.0
aF0.6285070859674735
aa(lp2244
F17.0
aF0.7498485954964347
aa(lp2245
F39.0
aF0.38328856536927586
aa(lp2246
F38.0
aF0.9228817643306666
aa(lp2247
F9.0
aF0.5343340652136039
aa(lp2248
F9.0
aF0.44210213931272874
aa(lp2249
F9.0
aF0.3944802153871898
aa(lp2250
F9.0
aF0.6028909346264959
aa(lp2251
F9.0
aF0.7083115277675587
aa(lp2252
F9.0
aF0.3861234899655803
aa(lp2253
F40.0
aF0.6190692044811809
aa(lp2254
F42.0
aF0.4804924743240486
aa(lp2255
F9.0
aF0.38400316928913036
aa(lp2256
F39.0
aF0.3783304339073897
aa(lp2257
F9.0
aF0.4406956093110924
aa(lp2258
F9.0
aF0.7755919693306448
aa(lp2259
F17.0
aF0.733457114757455
aa(lp2260
F9.0
aF0.8295815721098354
aa(lp2261
F42.0
aF0.9779734643699658
aa(lp2262
F9.0
aF0.4081956063326607
aa(lp2263
F39.0
aF0.13990942923121816
aa(lp2264
F9.0
aF0.579805963355688
aa(lp2265
F39.0
aF0.06744100568344838
aa(lp2266
F39.0
aF0.4194233630897716
aa(lp2267
F38.0
aF0.8930904336094163
aa(lp2268
F9.0
aF0.6899089396273984
aa(lp2269
F38.0
aF0.9902811887443173
aa(lp2270
F42.0
aF0.8346145658496937
aa(lp2271
F17.0
aF0.7554480135424507
aa(lp2272
F9.0
aF0.5423791992822832
aa(lp2273
F39.0
aF0.23657324589396908
aa(lp2274
F39.0
aF0.15611540290597095
aa(lp2275
F9.0
aF0.8311559472262765
aa(lp2276
F38.0
aF0.9548818427114917
aa(lp2277
F9.0
aF0.43471560824824973
aa(lp2278
F40.0
aF0.5338872977880935
aa(lp2279
F40.0
aF0.5102716941039138
aa(lp2280
F9.0
aF0.4048556868910058
aa(lp2281
F9.0
aF0.368374963309975
aa(lp2282
F40.0
aF0.5757945815179674
aa(lp2283
F9.0
aF0.5095590757584105
aa(lp2284
F42.0
aF0.974006235795776
aa(lp2285
F40.0
aF0.5234454321169286
aa(lp2286
F9.0
aF0.8468573870603167
aa(lp2287
F9.0
aF0.42061106666251225
aa(lp2288
F9.0
aF0.3746802802544112
aa(lp2289
F40.0
aF0.5984217858560281
aa(lp2290
F38.0
aF0.8900345856333107
aa(lp2291
F44.0
aF0.740479497896826
aa(lp2292
F42.0
aF0.7470299944502993
aa(lp2293
F39.0
aF0.40942652040621536
aa(lp2294
F42.0
aF0.418965784579303
aa(lp2295
F44.0
aF0.7401096274010689
aa(lp2296
F41.0
aF0.0353853586613847
aa(lp2297
F40.0
aF0.5537629720143538
aa(lp2298
F40.0
aF0.5638099057005024
aa(lp2299
F42.0
aF0.9223666590948749
aa(lp2300
F42.0
aF0.9335604680443562
aa(lp2301
F9.0
aF0.7400745123592476
aa(lp2302
F9.0
aF0.7072371694268996
aa(lp2303
F40.0
aF0.5090649563498647
aa(lp2304
F9.0
aF0.5673618165255289
aa(lp2305
F9.0
aF0.5120753924130178
aa(lp2306
F9.0
aF0.36375280318408987
aa(lp2307
F9.0
aF0.5256220999292812
aa(lp2308
F9.0
aF0.5882490599277708
aa(lp2309
F9.0
aF0.37316871329488993
aa(lp2310
F9.0
aF0.5907548355614062
aa(lp2311
F41.0
aF0.8316709396727434
aa(lp2312
F9.0
aF0.5025281490252673
aa(lp2313
F42.0
aF0.06952178034545774
aa(lp2314
F17.0
aF0.7817021976428553
aa(lp2315
F9.0
aF0.5176391685559706
aa(lp2316
F42.0
aF0.35852983519106574
aa(lp2317
F42.0
aF0.7859721056218473
aa(lp2318
F17.0
aF0.7465147465027123
aa(lp2319
F17.0
aF0.75542122649524
aa(lp2320
F9.0
aF0.6212326448608834
aa(lp2321
F44.0
aF0.7245432205201071
aa(lp2322
F9.0
aF0.5874779241152379
aa(lp2323
F44.0
aF0.7592855228021647
aa(lp2324
F40.0
aF0.6126639885127371
aa(lp2325
F42.0
aF0.9775056685290417
aa(lp2326
F9.0
aF0.38495497137316836
aa(lp2327
F40.0
aF0.5322314039852122
aa(lp2328
F42.0
aF0.5720561683473403
aa(lp2329
F17.0
aF0.7544402361431453
aa(lp2330
F40.0
aF0.5442975062976441
aa(lp2331
F9.0
aF0.3617814113074833
aa(lp2332
F42.0
aF0.9438000065008723
aa(lp2333
F9.0
aF0.8174889012869538
aa(lp2334
F9.0
aF0.36902226284355927
aa(lp2335
F39.0
aF0.40463067700677546
aa(lp2336
F40.0
aF0.6161340488315782
aa(lp2337
F9.0
aF0.4842718475837833
aa(lp2338
F40.0
aF0.5107369074334082
aa(lp2339
F17.0
aF0.732263592804372
aa(lp2340
F42.0
aF0.18090367196459894
aa(lp2341
F40.0
aF0.6086811561502736
aa(lp2342
F44.0
aF0.6853212476872897
aa(lp2343
F9.0
aF0.46341740566399975
aa(lp2344
F41.0
aF0.6723922444516882
aa(lp2345
F17.0
aF0.765869723045472
aa(lp2346
F44.0
aF0.6746268031568644
aa(lp2347
F39.0
aF0.1739938115373697
aa(lp2348
F9.0
aF0.40168630319052084
aa(lp2349
F42.0
aF0.7948298036176038
aa(lp2350
F44.0
aF0.6204483116853482
aa(lp2351
F9.0
aF0.6301179073017731
aa(lp2352
F9.0
aF0.3844456022419863
aa(lp2353
F40.0
aF0.5678775608335334
aa(lp2354
F39.0
aF0.2997330783088414
aa(lp2355
F42.0
aF0.9215559018854176
aa(lp2356
F9.0
aF0.45791356388411386
aa(lp2357
F40.0
aF0.6107810956944785
aa(lp2358
F42.0
aF0.8624155024079522
aa(lp2359
F38.0
aF0.8900294370296492
aa(lp2360
F9.0
aF0.8671882683408906
aa(lp2361
F42.0
aF0.5836371592273105
aa(lp2362
F9.0
aF0.39091378636376084
aa(lp2363
F38.0
aF0.8814258600105508
aa(lp2364
F39.0
aF0.21778094581293983
aa(lp2365
F9.0
aF0.5511177518224781
aa(lp2366
F39.0
aF0.3329703950054656
aa(lp2367
F9.0
aF0.7511395419457787
aa(lp2368
F9.0
aF0.39582117470678546
aa(lp2369
F44.0
aF0.6907651557228099
aa(lp2370
F40.0
aF0.6334990930960634
aa(lp2371
F9.0
aF0.4068970963968674
aa(lp2372
F9.0
aF0.49813578922852597
aa(lp2373
F9.0
aF0.65487278069811
aa(lp2374
F9.0
aF0.4753778230029526
aa(lp2375
F40.0
aF0.5388365755276091
aa(lp2376
F9.0
aF0.5450061419306865
aa(lp2377
F38.0
aF0.9031947029588463
aa(lp2378
F9.0
aF0.7633561375859175
aa(lp2379
F9.0
aF0.5060447502497134
aa(lp2380
F9.0
aF0.6049412327745128
aa(lp2381
F9.0
aF0.39404632179721183
aa(lp2382
F9.0
aF0.8199158748371164
aa(lp2383
F9.0
aF0.7842437259357306
aa(lp2384
F9.0
aF0.5075298127286736
aa(lp2385
F9.0
aF0.7523648861170733
aa(lp2386
F44.0
aF0.6291787799968384
aa(lp2387
F17.0
aF0.7576632211208006
aa(lp2388
F9.0
aF0.6522247590910297
aa(lp2389
F9.0
aF0.7493527748895966
aa(lp2390
F9.0
aF0.47658645028782504
aa(lp2391
F40.0
aF0.5687185029056693
aa(lp2392
F9.0
aF0.49034512307392364
aa(lp2393
F9.0
aF0.47674273148108626
aa(lp2394
F38.0
aF0.8975989042613235
aa(lp2395
F9.0
aF0.5433457788589849
aa(lp2396
F38.0
aF0.9436305592706421
aa(lp2397
F9.0
aF0.5233859137293915
aa(lp2398
F9.0
aF0.49571637321936807
aa(lp2399
F9.0
aF0.5116201191481142
aa(lp2400
F9.0
aF0.4235593917826188
aa(lp2401
F41.0
aF0.19254221753808226
aa(lp2402
F42.0
aF0.09871461377691583
aa(lp2403
F40.0
aF0.5580470061749055
aa(lp2404
F39.0
aF0.3123734823202831
aa(lp2405
F40.0
aF0.6199767560432492
aa(lp2406
F40.0
aF0.5303683849798907
aa(lp2407
F9.0
aF0.6385223325386047
aa(lp2408
F17.0
aF0.7365731650499863
aa(lp2409
F9.0
aF0.37094066404426596
aa(lp2410
F9.0
aF0.7531715922487396
aa(lp2411
F40.0
aF0.5513413688989595
aa(lp2412
F42.0
aF0.8442732324590592
aa(lp2413
F42.0
aF0.39880937237918596
aa(lp2414
F9.0
aF0.7819661767464693
aa(lp2415
F9.0
aF0.5297587446399658
aa(lp2416
F9.0
aF0.5042012580950991
aa(lp2417
F9.0
aF0.4643874995280695
aa(lp2418
F9.0
aF0.4960502981116225
aa(lp2419
F38.0
aF0.9706798818835356
aa(lp2420
F41.0
aF0.462262341726296
aa(lp2421
F9.0
aF0.5507068885838247
aa(lp2422
F40.0
aF0.5768594361797242
aa(lp2423
F9.0
aF0.4968384523906448
aa(lp2424
F9.0
aF0.43495241136366125
aa(lp2425
F9.0
aF0.5453817593435488
aa(lp2426
F42.0
aF0.3045646082424922
aa(lp2427
F40.0
aF0.5658204322665146
aa(lp2428
F9.0
aF0.8406952313466828
aa(lp2429
F9.0
aF0.43576335433902913
aa(lp2430
F44.0
aF0.738040620534488
aa(lp2431
F9.0
aF0.4269346314520045
aa(lp2432
F9.0
aF0.41977972654658574
aa(lp2433
F39.0
aF0.23550631843102124
aa(lp2434
F9.0
aF0.38279331699522934
aa(lp2435
F42.0
aF0.391112979832394
aa(lp2436
F38.0
aF0.9162476848820865
aa(lp2437
F40.0
aF0.5822235358303577
aa(lp2438
F38.0
aF0.9073308724722255
aa(lp2439
F9.0
aF0.8618950617006975
aa(lp2440
F9.0
aF0.4640912508262014
aa(lp2441
F40.0
aF0.5091491121522097
aa(lp2442
F40.0
aF0.5173243635968549
aa(lp2443
F42.0
aF0.7780575569178839
aa(lp2444
F44.0
aF0.6266821574471304
aa(lp2445
F9.0
aF0.8136816688332237
aa(lp2446
F9.0
aF0.5056731593689662
aa(lp2447
F39.0
aF0.2999651333294102
aa(lp2448
F40.0
aF0.584943695409907
aa(lp2449
F9.0
aF0.812820406627753
aa(lp2450
F39.0
aF0.018497904785305927
aa(lp2451
F39.0
aF0.06850802916347222
aa(lp2452
F9.0
aF0.5294124298006962
aa(lp2453
F9.0
aF0.5442646467224593
aa(lp2454
F39.0
aF0.34881250316149126
aa(lp2455
F9.0
aF0.5261131118445553
aa(lp2456
F44.0
aF0.7755987094819735
aa(lp2457
F39.0
aF0.2999521866560658
aa(lp2458
F42.0
aF0.9063584093640688
aa(lp2459
F9.0
aF0.38392304186119913
aa(lp2460
F40.0
aF0.612331748668564
aa(lp2461
F17.0
aF0.7422403729047521
aa(lp2462
F42.0
aF0.9742894626730292
aa(lp2463
F9.0
aF0.8084048538357851
aa(lp2464
F39.0
aF0.004944637824635148
aa(lp2465
F44.0
aF0.722313049319297
aa(lp2466
F9.0
aF0.4253019337139822
aa(lp2467
F40.0
aF0.6086637054458884
aa(lp2468
F42.0
aF0.7919014192904437
aa(lp2469
F41.0
aF0.08683021790494476
aa(lp2470
F9.0
aF0.3955184511949936
aa(lp2471
F9.0
aF0.40091526333127003
aa(lp2472
F42.0
aF0.173615120304592
aa(lp2473
F9.0
aF0.466426734870525
aa(lp2474
F9.0
aF0.515994512641785
aa(lp2475
F9.0
aF0.3743075515662317
aa(lp2476
F40.0
aF0.5113009330714677
aa(lp2477
F9.0
aF0.8148665371195674
aa(lp2478
F17.0
aF0.7790107383020574
aa(lp2479
F44.0
aF0.6739805446546289
aa(lp2480
F9.0
aF0.39862376662820836
aa(lp2481
F9.0
aF0.35934945629521936
aa(lp2482
F39.0
aF0.40329496508070256
aa(lp2483
F40.0
aF0.5299519332050349
aa(lp2484
F40.0
aF0.6250419664027994
aa(lp2485
F9.0
aF0.5194221995817819
aa(lp2486
F9.0
aF0.44162596441167
aa(lp2487
F44.0
aF0.7261242331112604
aa(lp2488
F9.0
aF0.5442788657465939
aa(lp2489
F40.0
aF0.5900069554922565
aa(lp2490
F40.0
aF0.6150684739940764
aa(lp2491
F9.0
aF0.7559631368250727
aa(lp2492
F40.0
aF0.5825655823126275
aa(lp2493
F9.0
aF0.4471319949705295
aa(lp2494
F42.0
aF0.8308613611500076
aa(lp2495
F9.0
aF0.4594477440648963
aa(lp2496
F39.0
aF0.2060232956843973
aa(lp2497
F9.0
aF0.8296659785572797
aa(lp2498
F41.0
aF0.6030050353016065
aa(lp2499
F9.0
aF0.3783448088222814
aa(lp2500
F9.0
aF0.8251500232601402
aa(lp2501
F9.0
aF0.8071089589201137
aa(lp2502
F9.0
aF0.7462187209251583
aa(lp2503
F9.0
aF0.47824179839133096
aa(lp2504
F9.0
aF0.5371585165448349
aa(lp2505
F40.0
aF0.5382648750086579
aa(lp2506
F17.0
aF0.72403931171401
aa(lp2507
F9.0
aF0.8809305354487502
aa(lp2508
F40.0
aF0.5176175572976811
aa(lp2509
F9.0
aF0.36138433858823155
aa(lp2510
F44.0
aF0.6692766476394675
aa(lp2511
F40.0
aF0.5735315220212923
aa(lp2512
F42.0
aF0.8600698230978737
aa(lp2513
F9.0
aF0.3985216418820594
aa(lp2514
F9.0
aF0.8686063783928982
aa(lp2515
F9.0
aF0.4175842014735617
aa(lp2516
F42.0
aF0.767568645254001
aa(lp2517
F17.0
aF0.7736470155767087
aa(lp2518
F9.0
aF0.3754211256941017
aa(lp2519
F17.0
aF0.7566624882916422
aa(lp2520
F40.0
aF0.5658265822869859
aa(lp2521
F42.0
aF0.7689908746455331
aa(lp2522
F9.0
aF0.5592049207111323
aa(lp2523
F17.0
aF0.7485938213713877
aa(lp2524
F9.0
aF0.5413878626617734
aa(lp2525
F44.0
aF0.678943837460772
aa(lp2526
F42.0
aF0.8154253914689099
aa(lp2527
F40.0
aF0.626194688541898
aa(lp2528
F9.0
aF0.46972547001356996
aa(lp2529
F9.0
aF0.5751808653620077
aa(lp2530
F42.0
aF0.8030454733229692
aa(lp2531
F9.0
aF0.4430719562376449
aa(lp2532
F9.0
aF0.881509208410845
aa(lp2533
F17.0
aF0.7814700489611136
aa(lp2534
F9.0
aF0.5404738200226314
aa(lp2535
F42.0
aF0.034898307512701135
aa(lp2536
F9.0
aF0.4308964004428575
aa(lp2537
F17.0
aF0.7792769968057296
aa(lp2538
F17.0
aF0.7709602605376722
aa(lp2539
F9.0
aF0.39168546614274896
aa(lp2540
F40.0
aF0.6330339193436192
aa(lp2541
F40.0
aF0.55691008555039
aa(lp2542
F9.0
aF0.46937769463268925
aa(lp2543
F9.0
aF0.48118185104975686
aa(lp2544
F9.0
aF0.4311039910173292
aa(lp2545
F9.0
aF0.4803694062018698
aa(lp2546
F9.0
aF0.7739604777741772
aa(lp2547
F40.0
aF0.5657782957543114
aa(lp2548
F9.0
aF0.7931646603174546
aa(lp2549
F44.0
aF0.6660237306053765
aa(lp2550
F42.0
aF0.12673587582906098
aa(lp2551
F9.0
aF0.3737468992962864
aa(lp2552
F42.0
aF0.3294375703513551
aa(lp2553
F9.0
aF0.798620900435932
aa(lp2554
F9.0
aF0.35941223693603186
aa(lp2555
F9.0
aF0.3723085719861736
aa(lp2556
F40.0
aF0.5914763805381508
aa(lp2557
F17.0
aF0.7559292875523052
aa(lp2558
F42.0
aF0.13783095650446886
aa(lp2559
F40.0
aF0.6188130410741918
aa(lp2560
F44.0
aF0.6516797048646451
aa(lp2561
F9.0
aF0.4131138919243192
aa(lp2562
F40.0
aF0.6050557358042652
aa(lp2563
F9.0
aF0.7887047402046887
aa(lp2564
F42.0
aF0.9886826065969158
aa(lp2565
F42.0
aF0.12798095001875975
aa(lp2566
F40.0
aF0.6333020284479478
aa(lp2567
F40.0
aF0.5567363145520583
aa(lp2568
F17.0
aF0.7243649168948476
aa(lp2569
F39.0
aF0.3002908171550034
aa(lp2570
F9.0
aF0.4839436920764816
aa(lp2571
F9.0
aF0.4015835368726592
aa(lp2572
F9.0
aF0.5657592817627896
aa(lp2573
F40.0
aF0.5642672255260635
aa(lp2574
F42.0
aF0.4622106576362761
aa(lp2575
F9.0
aF0.8043265480394453
aa(lp2576
F9.0
aF0.38661655432773034
aa(lp2577
F44.0
aF0.6711788832420352
aa(lp2578
F40.0
aF0.5643613582013689
aa(lp2579
F40.0
aF0.5268399424269026
aa(lp2580
F9.0
aF0.5378720594864089
aa(lp2581
F9.0
aF0.8224472281553489
aa(lp2582
F9.0
aF0.5476340435948767
aa(lp2583
F9.0
aF0.5064344818051959
aa(lp2584
F17.0
aF0.7536160616435605
aa(lp2585
F40.0
aF0.6194085911714806
aa(lp2586
F9.0
aF0.4716180645167248
aa(lp2587
F40.0
aF0.5668101309860966
aa(lp2588
F9.0
aF0.7787693983083783
aa(lp2589
F9.0
aF0.7458848097594314
aa(lp2590
F39.0
aF0.2774597240639383
aa(lp2591
F9.0
aF0.41249191287791337
aa(lp2592
F9.0
aF0.5000317053684664
aa(lp2593
F9.0
aF0.37524674441929895
aa(lp2594
F9.0
aF0.4674435085496599
aa(lp2595
F40.0
aF0.5530754868633541
aa(lp2596
F9.0
aF0.411534865003119
aa(lp2597
F9.0
aF0.7734991006434635
aa(lp2598
F9.0
aF0.3844061857902208
aa(lp2599
F9.0
aF0.4022919504499024
aa(lp2600
F40.0
aF0.5847926779538893
aa(lp2601
F39.0
aF0.2799669358341245
aa(lp2602
F40.0
aF0.5559736660108043
aa(lp2603
F9.0
aF0.42496183885168587
aa(lp2604
F9.0
aF0.467201298960522
aa(lp2605
F9.0
aF0.8729111038959908
aa(lp2606
F9.0
aF0.5086308242465846
aa(lp2607
F9.0
aF0.4088853036983298
aa(lp2608
F9.0
aF0.4234539339115206
aa(lp2609
F9.0
aF0.8788702130832041
aa(lp2610
F9.0
aF0.40501659438429344
aa(lp2611
F40.0
aF0.5146519579879513
aa(lp2612
F9.0
aF0.4144586464679648
aa(lp2613
F9.0
aF0.35879271362023873
aa(lp2614
F41.0
aF0.4000571308917835
aa(lp2615
F9.0
aF0.37227596838134985
aa(lp2616
F9.0
aF0.4471892530201471
aa(lp2617
F40.0
aF0.5190681141674214
aa(lp2618
F9.0
aF0.3752584987656726
aa(lp2619
F9.0
aF0.5127072683802777
aa(lp2620
F9.0
aF0.4380796574055577
aa(lp2621
F9.0
aF0.39386815860874014
aa(lp2622
F9.0
aF0.4547724822339791
aa(lp2623
F9.0
aF0.4867806223974566
aa(lp2624
F41.0
aF0.6130021515603437
aa(lp2625
F40.0
aF0.5087521005952272
aa(lp2626
F40.0
aF0.5669637034741666
aa(lp2627
F44.0
aF0.6688064406974661
aa(lp2628
F9.0
aF0.552971127978491
aa(lp2629
F39.0
aF0.37941886375958606
aa(lp2630
F9.0
aF0.4266899973936794
aa(lp2631
F9.0
aF0.48097797838437
aa(lp2632
F9.0
aF0.37235060070266734
aa(lp2633
F9.0
aF0.7587593459490729
aa(lp2634
F40.0
aF0.5252719237441645
aa(lp2635
F9.0
aF0.4876464446600059
aa(lp2636
F17.0
aF0.7227943801809241
aa(lp2637
F9.0
aF0.40531574902417505
aa(lp2638
F44.0
aF0.6720201749186111
aa(lp2639
F9.0
aF0.3921875556746148
aa(lp2640
F42.0
aF0.8706739068404412
aa(lp2641
F9.0
aF0.7447385048939992
aa(lp2642
F9.0
aF0.857954583335736
aa(lp2643
F9.0
aF0.516646923033794
aa(lp2644
F9.0
aF0.4256810651620031
aa(lp2645
F17.0
aF0.7255401463652739
aa(lp2646
F40.0
aF0.6015465850430421
aa(lp2647
F9.0
aF0.8204137521661944
aa(lp2648
F9.0
aF0.46727983261062245
aa(lp2649
F40.0
aF0.5852497175758821
aa(lp2650
F9.0
aF0.7997534254567499
aa(lp2651
F17.0
aF0.7546210130913564
aa(lp2652
F9.0
aF0.5106993904101489
aa(lp2653
F9.0
aF0.3747654861065655
aa(lp2654
F9.0
aF0.3747373122797621
aa(lp2655
F9.0
aF0.35767450353270064
aa(lp2656
F40.0
aF0.5844561141344258
aa(lp2657
F9.0
aF0.4737843695581726
aa(lp2658
F9.0
aF0.5072343174599434
aa(lp2659
F9.0
aF0.5002783398994984
aa(lp2660
F44.0
aF0.6598354173141489
aa(lp2661
F40.0
aF0.5806336834674715
aa(lp2662
F40.0
aF0.5385171684811285
aa(lp2663
F42.0
aF0.8444268450413988
aa(lp2664
F9.0
aF0.4292990887467571
aa(lp2665
F9.0
aF0.3935015496882089
aa(lp2666
F40.0
aF0.5371194241424272
aa(lp2667
F40.0
aF0.5530428047388957
aa(lp2668
F9.0
aF0.4408534276232154
aa(lp2669
F40.0
aF0.6041291341479166
aa(lp2670
F40.0
aF0.5399297593737808
aa(lp2671
F40.0
aF0.5667266263308915
aa(lp2672
F40.0
aF0.550103877780978
aa(lp2673
F9.0
aF0.49658048279339245
aa(lp2674
F40.0
aF0.5834000916293495
aa(lp2675
F40.0
aF0.6068061258753037
aa(lp2676
F40.0
aF0.5598436126019403
aa(lp2677
F9.0
aF0.563341660593248
aa(lp2678
F39.0
aF0.2008372238982988
aa(lp2679
F40.0
aF0.5648967325377419
aa(lp2680
F9.0
aF0.4765606288107688
aa(lp2681
F9.0
aF0.35779933882163184
aa(lp2682
F9.0
aF0.4788245088945064
aa(lp2683
F9.0
aF0.4299652534534269
aa(lp2684
F40.0
aF0.556704868322004
aa(lp2685
F9.0
aF0.5677684408145276
aa(lp2686
F40.0
aF0.612599211785861
aa(lp2687
F40.0
aF0.5169886355200711
aa(lp2688
F40.0
aF0.5844832486079337
aa(lp2689
F9.0
aF0.4682739509116002
aa(lp2690
F40.0
aF0.6037839750499129
aa(lp2691
F9.0
aF0.45227974454412095
aa(lp2692
F39.0
aF0.2877053647836468
aa(lp2693
F9.0
aF0.8780644385142702
aa(lp2694
F41.0
aF0.1150689791134836
aa(lp2695
F9.0
aF0.3953843961878843
aa(lp2696
F40.0
aF0.5701154961079798
aa(lp2697
F17.0
aF0.7349546788123611
aa(lp2698
F40.0
aF0.5546701205525607
aa(lp2699
F40.0
aF0.5564096044445007
aa(lp2700
F9.0
aF0.5434243540543718
aa(lp2701
F9.0
aF0.7917202980768206
aa(lp2702
F9.0
aF0.37720290494510167
aa(lp2703
F40.0
aF0.5590461132307079
aa(lp2704
F40.0
aF0.5614710493373672
aa(lp2705
F9.0
aF0.5687623300836347
aa(lp2706
F40.0
aF0.5974651083189052
aa(lp2707
F9.0
aF0.46170372713931945
aa(lp2708
F44.0
aF0.613469302258641
aa(lp2709
F9.0
aF0.7994757177751075
aa(lp2710
F40.0
aF0.5666560861047976
aa(lp2711
F42.0
aF0.8089516636312373
aa(lp2712
F40.0
aF0.5684612191712087
aa(lp2713
F9.0
aF0.41210990582012785
aa(lp2714
F40.0
aF0.5919690414038961
aa(lp2715
F17.0
aF0.778455312731492
aa(lp2716
F9.0
aF0.47121530720551136
aa(lp2717
F9.0
aF0.8552232165618351
aa(lp2718
F9.0
aF0.8856900309822007
aa(lp2719
F39.0
aF0.2769743159686762
aa(lp2720
F40.0
aF0.5958862490293787
aa(lp2721
F40.0
aF0.5257560181500823
aa(lp2722
F41.0
aF0.9069632687213501
aa(lp2723
F17.0
aF0.7463799171693448
aa(lp2724
F9.0
aF0.5465968526803536
aa(lp2725
F9.0
aF0.3614646868764302
aa(lp2726
F9.0
aF0.542100370785855
aa(lp2727
F42.0
aF0.9745591861440024
aa(lp2728
F9.0
aF0.37067313955440034
aa(lp2729
F9.0
aF0.5225047699635862
aa(lp2730
F9.0
aF0.4453241388105244
aa(lp2731
F9.0
aF0.42452736524814233
aa(lp2732
F9.0
aF0.5717530889568307
aa(lp2733
F40.0
aF0.57727294012152
aa(lp2734
F42.0
aF0.8974314154450419
aa(lp2735
F40.0
aF0.5796856670732805
aa(lp2736
F9.0
aF0.4433605954558661
aa(lp2737
F9.0
aF0.48286838192693515
aa(lp2738
F9.0
aF0.5051252409091047
aa(lp2739
F9.0
aF0.5055774056483394
aa(lp2740
F39.0
aF0.2804675389020826
aa(lp2741
F40.0
aF0.5838722201356192
aa(lp2742
F9.0
aF0.4396928246090763
aa(lp2743
F9.0
aF0.3685520201163758
aa(lp2744
F9.0
aF0.4146286604686821
aa(lp2745
F40.0
aF0.6377853721467402
aa(lp2746
F17.0
aF0.7734470148506551
aa(lp2747
F40.0
aF0.6137093010688387
aa(lp2748
F17.0
aF0.7538469996023035
aa(lp2749
F40.0
aF0.5971602116891895
aa(lp2750
F40.0
aF0.5452945374324984
aa(lp2751
F40.0
aF0.6314148828736167
aa(lp2752
F17.0
aF0.7499456102239433
aa(lp2753
F9.0
aF0.4084741427699479
aa(lp2754
F40.0
aF0.5719605672374364
aa(lp2755
F42.0
aF0.8286599101200225
aa(lp2756
F40.0
aF0.58623066231928
aa(lp2757
F40.0
aF0.6258776916550214
aa(lp2758
F40.0
aF0.6358728691230632
aa(lp2759
F44.0
aF0.630675091203907
aa(lp2760
F40.0
aF0.6006828619729268
aa(lp2761
F9.0
aF0.4467950760559312
aa(lp2762
F40.0
aF0.6372124459562386
aa(lp2763
F40.0
aF0.5569019144229413
aa(lp2764
F9.0
aF0.36518062209658975
aa(lp2765
F39.0
aF0.22366797288901685
aa(lp2766
F9.0
aF0.3955383581024298
aa(lp2767
F40.0
aF0.5840356487209281
aa(lp2768
F40.0
aF0.5894977983472774
aa(lp2769
F40.0
aF0.5427521563562098
aa(lp2770
F39.0
aF0.22612577826566638
aa(lp2771
F40.0
aF0.5682112140116551
aa(lp2772
F9.0
aF0.5472809536834129
aa(lp2773
F40.0
aF0.527442596239608
aa(lp2774
F39.0
aF0.2836979233200843
aa(lp2775
F9.0
aF0.4031052560840994
aa(lp2776
F39.0
aF0.30051987948337217
aa(lp2777
F39.0
aF0.4206711941578079
aa(lp2778
F9.0
aF0.45668232766554945
aa(lp2779
F9.0
aF0.48430681815392174
aa(lp2780
F40.0
aF0.5108033020973589
aa(lp2781
F40.0
aF0.5383491716429915
aa(lp2782
F40.0
aF0.5974109268503143
aa(lp2783
F40.0
aF0.5708289492561307
aa(lp2784
F9.0
aF0.3624663934628077
aa(lp2785
F41.0
aF0.2106982129783843
aa(lp2786
F9.0
aF0.5389043726286528
aa(lp2787
F41.0
aF0.3178341824913174
aa(lp2788
F17.0
aF0.7840771189574189
aa(lp2789
F41.0
aF0.8502297394034928
aa(lp2790
F17.0
aF0.7792347570357584
aa(lp2791
F17.0
aF0.729171153681286
aa(lp2792
F9.0
aF0.43028622143696627
aa(lp2793
F40.0
aF0.6157447835207467
aa(lp2794
F40.0
aF0.635129900939399
aa(lp2795
F40.0
aF0.6118258861548069
aa(lp2796
F17.0
aF0.7487333226219526
aa(lp2797
F17.0
aF0.7432360629474528
aa(lp2798
F40.0
aF0.6214105408114098
aa(lp2799
F9.0
aF0.5213525447718415
aa(lp2800
F9.0
aF0.39216847219488765
aa(lp2801
F17.0
aF0.7460497005790125
aa(lp2802
F9.0
aF0.571432205709535
aa(lp2803
F17.0
aF0.7526228393820452
aa(lp2804
F9.0
aF0.43451314343150665
aa(lp2805
F41.0
aF0.7741508675080593
aa(lp2806
F39.0
aF0.390690669333043
aa(lp2807
F40.0
aF0.5232225827041557
aa(lp2808
F9.0
aF0.5747479710531381
aa(lp2809
F40.0
aF0.5150768750650578
aa(lp2810
F39.0
aF0.40467428396087457
aa(lp2811
F39.0
aF0.22812159582575703
aa(lp2812
F9.0
aF0.3856862618382768
aa(lp2813
F40.0
aF0.6033371705009724
aa(lp2814
F40.0
aF0.5749080936117167
aa(lp2815
F39.0
aF0.22463444328016152
aa(lp2816
F40.0
aF0.5154273836853606
aa(lp2817
F40.0
aF0.6325257971896188
aa(lp2818
F40.0
aF0.6323071931335176
aa(lp2819
F9.0
aF0.35989053913988434
aa(lp2820
F40.0
aF0.5830534358081139
aa(lp2821
F40.0
aF0.5970684878591207
aa(lp2822
F40.0
aF0.6372036310323711
aa(lp2823
F39.0
aF0.20881196702967383
aa(lp2824
F39.0
aF0.21451243000910888
aa(lp2825
F17.0
aF0.7314891342608271
aa(lp2826
F17.0
aF0.7447144673279754
aa(lp2827
F9.0
aF0.45680991017676187
aa(lp2828
F39.0
aF0.1989728646443506
aa(lp2829
F9.0
aF0.38860703411665426
aa(lp2830
F40.0
aF0.6373301830074187
aa(lp2831
F9.0
aF0.4050520566818984
aa(lp2832
F17.0
aF0.7388145114380678
aa(lp2833
F41.0
aF0.22529482582352556
aa(lp2834
F9.0
aF0.3957537628226312
aa(lp2835
F40.0
aF0.5318343358130888
aa(lp2836
F40.0
aF0.5904851348086303
aa(lp2837
F40.0
aF0.6268675618751538
aa(lp2838
F40.0
aF0.5504211443078079
aa(lp2839
F9.0
aF0.3868503994174654
aa(lp2840
F17.0
aF0.7361400251649537
aa(lp2841
F40.0
aF0.5488138158294424
aa(lp2842
F9.0
aF0.36003140799016464
aa(lp2843
F40.0
aF0.635029254796811
aa(lp2844
F40.0
aF0.5376376633685335
aa(lp2845
F9.0
aF0.35731443694500653
aa(lp2846
F40.0
aF0.5859460787931539
aa(lp2847
F39.0
aF0.22541716715166496
aa(lp2848
F17.0
aF0.7339719869677416
aa(lp2849
F41.0
aF0.23704918432083594
aa(lp2850
F39.0
aF0.3875298228134889
aa(lp2851
F39.0
aF0.24206434077278394
aa(lp2852
F39.0
aF0.21958364890537335
aa(lp2853
F41.0
aF0.7855373154094086
aa(lp2854
F17.0
aF0.7700635320286491
aa(lp2855
F40.0
aF0.5318647479284088
aa(lp2856
F39.0
aF0.3496691215605826
aa(lp2857
F40.0
aF0.5510854806814731
aa(lp2858
F40.0
aF0.5436768876196627
aa(lp2859
F41.0
aF0.9955911958036813
aa(lp2860
F9.0
aF0.38535856459017886
aa(lp2861
F17.0
aF0.7430680427013248
aa(lp2862
F40.0
aF0.5301405154154484
aa(lp2863
F17.0
aF0.7513438780553636
aa(lp2864
F17.0
aF0.7545013651149404
aa(lp2865
F17.0
aF0.7701058512466277
aa(lp2866
F39.0
aF0.22869269491954894
aa(lp2867
F17.0
aF0.7570653618711419
aa(lp2868
F9.0
aF0.45734528267882757
aa(lp2869
F9.0
aF0.4370658692051545
aa(lp2870
F9.0
aF0.4369104065530343
aa(lp2871
F41.0
aF0.2366022245209227
aa(lp2872
F40.0
aF0.5626795693243639
aa(lp2873
F40.0
aF0.5978179395717073
aa(lp2874
F40.0
aF0.5859114044777924
aa(lp2875
F9.0
aF0.39254046511723695
aa(lp2876
F9.0
aF0.3680949022697452
aa(lp2877
F41.0
aF0.2615258070134136
aa(lp2878
F41.0
aF0.16632333250830836
aa(lp2879
F39.0
aF0.27997265415252165
aa(lp2880
F17.0
aF0.7269413421777879
aa(lp2881
F17.0
aF0.7599052797018936
aa(lp2882
F9.0
aF0.36734589435714066
aa(lp2883
F9.0
aF0.42638146720138626
aa(lp2884
F9.0
aF0.38184729554470825
aa(lp2885
F39.0
aF0.31240747571555205
aa(lp2886
F17.0
aF0.7233461360432537
aa(lp2887
F40.0
aF0.5083719940369297
aa(lp2888
F40.0
aF0.5853854757180367
aa(lp2889
F17.0
aF0.7585826595445789
aa(lp2890
F9.0
aF0.40121146836928784
aa(lp2891
F17.0
aF0.7278081721156312
aa(lp2892
F40.0
aF0.6043308295543123
aa(lp2893
F40.0
aF0.520945866545092
aa(lp2894
F39.0
aF0.2431959531750307
aa(lp2895
F40.0
aF0.5601319313156295
aa(lp2896
F40.0
aF0.6015667493310821
aa(lp2897
F40.0
aF0.5987694696582839
aa(lp2898
F41.0
aF0.7270899879433984
aa(lp2899
F40.0
aF0.5979372122416453
aa(lp2900
F9.0
aF0.4394759932947258
aa(lp2901
F40.0
aF0.5896987138472506
aa(lp2902
F17.0
aF0.753020887604552
aa(lp2903
F40.0
aF0.5444541459827678
aa(lp2904
F40.0
aF0.5506491932103224
aa(lp2905
F9.0
aF0.4387948785144176
aa(lp2906
F39.0
aF0.32268303150582106
aa(lp2907
F17.0
aF0.7409177956291066
aa(lp2908
F39.0
aF0.2739676789181792
aa(lp2909
F40.0
aF0.5482554189923252
aa(lp2910
F17.0
aF0.7567577922925877
aa(lp2911
F40.0
aF0.5439631734944325
aa(lp2912
F9.0
aF0.37219763542102513
aa(lp2913
F17.0
aF0.7526793134994174
aa(lp2914
F17.0
aF0.7480786304815119
aa(lp2915
F41.0
aF0.4454280010332749
aa(lp2916
F9.0
aF0.38472990563039966
aa(lp2917
F40.0
aF0.593219201899941
aa(lp2918
F17.0
aF0.7473763344651309
aa(lp2919
F40.0
aF0.5713364987842493
aa(lp2920
F17.0
aF0.7504515579606008
aa(lp2921
F9.0
aF0.4108018969129761
aa(lp2922
F41.0
aF0.3849725855579484
aa(lp2923
F17.0
aF0.7547495150315797
aa(lp2924
F39.0
aF0.2024864813263618
aa(lp2925
F41.0
aF0.609799133482049
aa(lp2926
F9.0
aF0.3608789318963073
aa(lp2927
F9.0
aF0.40000620864863556
aa(lp2928
F17.0
aF0.7286250501885132
aa(lp2929
F17.0
aF0.7401804355157681
aa(lp2930
F40.0
aF0.5805212154701226
aa(lp2931
F40.0
aF0.6227235218181394
aa(lp2932
F40.0
aF0.5949714200120497
aa(lp2933
F39.0
aF0.26973779415386284
aa(lp2934
F9.0
aF0.3622550480431015
aa(lp2935
F40.0
aF0.5724656688300713
aa(lp2936
F41.0
aF0.7662248184117509
aa(lp2937
F40.0
aF0.5926578565969205
aa(lp2938
F41.0
aF0.8989388581408946
aa(lp2939
F40.0
aF0.5833421492213386
aa(lp2940
F40.0
aF0.5604003921348262
aa(lp2941
F17.0
aF0.7536710516808046
aa(lp2942
F9.0
aF0.3731889118264053
aa(lp2943
F9.0
aF0.3888639868663742
aa(lp2944
F40.0
aF0.5896879766373304
aa(lp2945
F39.0
aF0.3020635455110175
aa(lp2946
F40.0
aF0.5835667468395598
aa(lp2947
F9.0
aF0.4518403727140705
aa(lp2948
F41.0
aF0.1299760840549178
aa(lp2949
F40.0
aF0.5776336525621496
aa(lp2950
F40.0
aF0.5623994471492174
aa(lp2951
F41.0
aF0.9076842035805055
aa(lp2952
F39.0
aF0.3157262516250616
aa(lp2953
F9.0
aF0.3744817626371386
aa(lp2954
F41.0
aF0.9353525106584027
aa(lp2955
F9.0
aF0.4015266323898882
aa(lp2956
F41.0
aF0.013501014883229778
aa(lp2957
F40.0
aF0.578432297379867
aa(lp2958
F40.0
aF0.608788010680961
aa(lp2959
F39.0
aF0.22350052229970538
aa(lp2960
F9.0
aF0.3718720687229248
aa(lp2961
F9.0
aF0.3874048734007449
aa(lp2962
F39.0
aF0.21228637723704666
aa(lp2963
F40.0
aF0.6051097974220595
aa(lp2964
F40.0
aF0.5665887445124558
aa(lp2965
F40.0
aF0.6090396247717426
aa(lp2966
F9.0
aF0.4048409538566541
aa(lp2967
F41.0
aF0.25924184435196324
aa(lp2968
F39.0
aF0.2544128778083575
aa(lp2969
F40.0
aF0.608350162033918
aa(lp2970
F9.0
aF0.4600366464362439
aa(lp2971
F9.0
aF0.3940227346986909
aa(lp2972
F40.0
aF0.6123329267795024
aa(lp2973
F39.0
aF0.24597861870239504
aa(lp2974
F39.0
aF0.27772288747218493
aa(lp2975
F39.0
aF0.31126335493879964
aa(lp2976
F40.0
aF0.5763738113151569
aa(lp2977
F40.0
aF0.5786345124480232
aa(lp2978
F9.0
aF0.4542882685185527
aa(lp2979
F41.0
aF0.9180922616350983
aa(lp2980
F40.0
aF0.5590436217263919
aa(lp2981
F39.0
aF0.31777571205877736
aa(lp2982
F41.0
aF0.4389604961895355
aa(lp2983
F41.0
aF0.5731325291556935
aa(lp2984
F41.0
aF0.27699686974513194
aa(lp2985
F9.0
aF0.39826850592034185
aa(lp2986
F40.0
aF0.5660271876937114
aa(lp2987
F9.0
aF0.45817033546510944
aa(lp2988
F39.0
aF0.2488776890448466
aa(lp2989
F39.0
aF0.260263467028099
aa(lp2990
F9.0
aF0.3990312973093847
aa(lp2991
F39.0
aF0.3061899122633991
aa(lp2992
F40.0
aF0.5574442267184522
aa(lp2993
F9.0
aF0.457975879777621
aa(lp2994
F9.0
aF0.3966723973666657
aa(lp2995
F9.0
aF0.3624098156360804
aa(lp2996
F40.0
aF0.5848175989847187
aa(lp2997
F9.0
aF0.46134399474874643
aa(lp2998
F9.0
aF0.3682277400232829
aa(lp2999
F40.0
aF0.5689937675212098
aa(lp3000
F9.0
aF0.36600645380182695
aa(lp3001
F40.0
aF0.5544433564194311
aa(lp3002
F9.0
aF0.36528525710114584
aa(lp3003
F9.0
aF0.3917115789979797
aaaa.